
IC_TESTER.elf:     file format elf32-avr

Sections:
Idx Name          Size      VMA       LMA       File off  Algn
  0 .text         000031b0  00000000  00000000  00000094  2**1
                  CONTENTS, ALLOC, LOAD, READONLY, CODE
  1 .data         0000019c  00800060  000031b0  00003244  2**0
                  CONTENTS, ALLOC, LOAD, DATA
  2 .bss          000000d8  008001fc  008001fc  000033e0  2**0
                  ALLOC
  3 .comment      00000030  00000000  00000000  000033e0  2**0
                  CONTENTS, READONLY
  4 .note.gnu.avr.deviceinfo 0000003c  00000000  00000000  00003410  2**2
                  CONTENTS, READONLY
  5 .debug_aranges 00000110  00000000  00000000  0000344c  2**0
                  CONTENTS, READONLY, DEBUGGING
  6 .debug_info   000053ea  00000000  00000000  0000355c  2**0
                  CONTENTS, READONLY, DEBUGGING
  7 .debug_abbrev 000008e0  00000000  00000000  00008946  2**0
                  CONTENTS, READONLY, DEBUGGING
  8 .debug_line   00000a03  00000000  00000000  00009226  2**0
                  CONTENTS, READONLY, DEBUGGING
  9 .debug_frame  00000330  00000000  00000000  00009c2c  2**2
                  CONTENTS, READONLY, DEBUGGING
 10 .debug_str    0000256d  00000000  00000000  00009f5c  2**0
                  CONTENTS, READONLY, DEBUGGING
 11 .debug_loc    00000b2e  00000000  00000000  0000c4c9  2**0
                  CONTENTS, READONLY, DEBUGGING
 12 .debug_ranges 000000f0  00000000  00000000  0000cff7  2**0
                  CONTENTS, READONLY, DEBUGGING

Disassembly of section .text:

00000000 <__vectors>:
       0:	0c 94 70 15 	jmp	0x2ae0	; 0x2ae0 <__ctors_end>
       4:	0c 94 27 18 	jmp	0x304e	; 0x304e <__vector_1>
       8:	0c 94 53 18 	jmp	0x30a6	; 0x30a6 <__vector_2>
       c:	0c 94 7f 18 	jmp	0x30fe	; 0x30fe <__vector_3>
      10:	0c 94 8d 15 	jmp	0x2b1a	; 0x2b1a <__bad_interrupt>
      14:	0c 94 8d 15 	jmp	0x2b1a	; 0x2b1a <__bad_interrupt>
      18:	0c 94 8d 15 	jmp	0x2b1a	; 0x2b1a <__bad_interrupt>
      1c:	0c 94 8d 15 	jmp	0x2b1a	; 0x2b1a <__bad_interrupt>
      20:	0c 94 8d 15 	jmp	0x2b1a	; 0x2b1a <__bad_interrupt>
      24:	0c 94 8d 15 	jmp	0x2b1a	; 0x2b1a <__bad_interrupt>
      28:	0c 94 8d 15 	jmp	0x2b1a	; 0x2b1a <__bad_interrupt>
      2c:	0c 94 8d 15 	jmp	0x2b1a	; 0x2b1a <__bad_interrupt>
      30:	0c 94 8d 15 	jmp	0x2b1a	; 0x2b1a <__bad_interrupt>
      34:	0c 94 8d 15 	jmp	0x2b1a	; 0x2b1a <__bad_interrupt>
      38:	0c 94 8d 15 	jmp	0x2b1a	; 0x2b1a <__bad_interrupt>
      3c:	0c 94 8d 15 	jmp	0x2b1a	; 0x2b1a <__bad_interrupt>
      40:	0c 94 8d 15 	jmp	0x2b1a	; 0x2b1a <__bad_interrupt>
      44:	0c 94 8d 15 	jmp	0x2b1a	; 0x2b1a <__bad_interrupt>
      48:	0c 94 8d 15 	jmp	0x2b1a	; 0x2b1a <__bad_interrupt>
      4c:	0c 94 8d 15 	jmp	0x2b1a	; 0x2b1a <__bad_interrupt>
      50:	0c 94 8d 15 	jmp	0x2b1a	; 0x2b1a <__bad_interrupt>

00000054 <IC_7486>:
      54:	3e 1d 00 00 5b 3b 72 00 6a 00 62 00 00 04           >...[;r.j.b...

00000062 <CLK_7486>:
	...

0000006a <Dont_care_7486>:
      6a:	ff 3f ff 3f ff 3f ff 3f                             .?.?.?.?

00000072 <logic_7486>:
      72:	00 a0 b6 b6 ad ad 1b bb                             ........

0000007a <IC_7485>:
      7a:	3d 1d 00 00 8f ff b8 00 a0 00 88 00 00 0c           =.............

00000088 <CLK_7485>:
	...

000000a0 <Dont_care_7485>:
      a0:	ff ff ff ff ff ff ff ff ff ff ff ff ff ff ff ff     ................
      b0:	ff ff ff ff ff ff ff ff                             ........

000000b8 <logic_7485>:
      b8:	12 ea 49 95 13 d5 48 aa 13 c9 48 b6 13 ce 48 b1     ..I...H...H...H.
      c8:	19 cc 42 b3 25 cc 0a b3                             ..B.%...

000000d0 <IC_7475>:
      d0:	33 1d 00 00 7e 18 fe 00 ee 00 de 00 00 08           3...~.........

000000de <CLK_7475>:
      de:	00 00 00 00 00 10 00 10 00 10 08 00 08 00 08 00     ................

000000ee <Dont_care_7475>:
      ee:	ff ff ff ff ff ff ff ff ff ff ff ff ff ff ff ff     ................

000000fe <logic_7475>:
      fe:	99 34 91 24 f2 a4 f5 44 f6 c4 b0 c2 50 c5 70 c3     .4.$...D....P.p.

0000010e <IC_7474>:
     10e:	32 1d 00 00 4f 3e 3c 01 2c 01 1c 01 00 08           2...O><.,.....

0000011c <CLK_7474>:
     11c:	04 00 04 00 04 00 04 00 00 04 00 04 00 04 00 04     ................

0000012c <Dont_care_7474>:
     12c:	ff 3f ff 3f ff 3f ff 3f ff 3f ff 3f ff 3f ff 3f     .?.?.?.?.?.?.?.?

0000013c <logic_7474>:
     13c:	aa a2 91 a2 a9 a2 9b a2 a8 aa 28 b1 a8 b2 28 bb     ..........(...(.

0000014c <IC_7472>:
     14c:	30 1d 00 00 5f 3f 8e 01 74 01 5a 01 00 0d           0..._?..t.Z...

0000015a <CLK_7472>:
     15a:	00 08 00 08 00 08 00 08 00 08 00 08 00 08 00 08     ................
     16a:	00 08 00 08 00 08 00 08 00 08                       ..........

00000174 <Dont_care_7472>:
     174:	ff 3f ff 3f ff 3f ff 3f ff 3f ff 3f ff 3f ff 3f     .?.?.?.?.?.?.?.?
     184:	ff 3f ff 3f ff 3f ff 3f ff 3f                       .?.?.?.?.?

0000018e <logic_7472>:
     18e:	3c b0 82 a7 82 b0 82 b1 82 b3 22 b7 22 b0 26 b0     <.........".".&.
     19e:	2e b0 9e b0 3e b7 9e b7 9a b6                       ....>.....

000001a8 <IC_7465>:
     1a8:	29 1d 00 00 7f 3f d6 01 c6 01 b6 01 00 08           )....?........

000001b6 <CLK_7465>:
	...

000001c6 <Dont_care_7465>:
     1c6:	ff 3f ff 3f ff 3f ff 3f ff 3f ff 3f ff 3f ff 3f     .?.?.?.?.?.?.?.?

000001d6 <logic_7465>:
     1d6:	80 a0 aa b5 95 aa 3f bf 06 a0 38 a0 00 a7 01 b8     ......?...8.....

000001e6 <IC_7462>:
     1e6:	26 1d 00 00 5f 3f 14 02 04 02 f4 01 00 08           &..._?........

000001f4 <CLK_7462>:
	...

00000204 <Dont_care_7462>:
     204:	ff 3f ff 3f ff 3f ff 3f ff 3f ff 3f ff 3f ff 3f     .?.?.?.?.?.?.?.?

00000214 <logic_7462>:
     214:	9f bf 20 a0 83 a0 9c a0 80 a7 80 b8 35 b5 2a aa     .. .........5.*.

00000224 <IC_7461>:
     224:	25 1d 00 00 7f 3c 4e 02 40 02 32 02 00 07           %....<N.@.2...

00000232 <CLK_7461>:
	...

00000240 <Dont_care_7461>:
     240:	ff 3f ff 3f ff 3f ff 3f ff 3f ff 3f ff 3f           .?.?.?.?.?.?.?

0000024e <logic_7461>:
     24e:	bf bf 15 b4 2a a8 00 a0 07 a1 b8 a0 00 be           ....*.........

0000025c <IC_7460>:
     25c:	24 1d 00 00 ff 30 7a 02 72 02 6a 02 00 04           $....0z.r.j...

0000026a <CLK_7460>:
	...

00000272 <Dont_care_7460>:
     272:	ff 3f ff 3f ff 3f ff 3f                             .?.?.?.?

0000027a <logic_7460>:
     27a:	bf b6 95 a9 2a b9 00 a9                             ....*...

00000282 <IC_74597>:
     282:	65 23 01 00 ff fe a4 02 9a 02 90 02 00 05           e#............

00000290 <CLK_74597>:
     290:	00 08 00 08 00 08 00 04 00 04                       ..........

0000029a <Dont_care_74597>:
     29a:	ff fe ff ff ff ff ff ff ff ff                       ..........

000002a4 <logic_74597>:
     2a4:	55 b0 55 a2 55 a2 55 b3 55 b2                       U.U.U.U.U.

000002ae <IC_74595>:
     2ae:	63 23 01 00 80 be d8 02 ca 02 bc 02 00 07           c#............

000002bc <CLK_74595>:
     2bc:	00 00 00 00 00 04 00 04 00 04 00 04 00 08           ..............

000002ca <Dont_care_74595>:
     2ca:	80 be ff ff ff ff ff ff ff ff ff ff ff ff           ..............

000002d8 <logic_74595>:
     2d8:	00 80 00 82 00 a2 00 a2 00 a2 00 a2 07 e2           ..............

000002e6 <IC_74589>:
     2e6:	5d 23 01 00 ff fe 10 03 02 03 f4 02 00 07           ]#............

000002f4 <CLK_74589>:
     2f4:	00 08 00 00 00 00 00 04 00 04 00 04 00 04           ..............

00000302 <Dont_care_74589>:
     302:	ff fe ff ff ff ff ff ff ff ff ff ff ff ff           ..............

00000310 <logic_74589>:
     310:	55 b2 55 a3 55 b3 55 b2 55 b3 55 92 55 93           U.U.U.U.U.U.U.

0000031e <IC_7458>:
     31e:	22 1d 00 00 5f 3f 38 03 32 03 2c 03 00 03           "..._?8.2.,...

0000032c <CLK_7458>:
     32c:	00 00 00 00 00 00                                   ......

00000332 <Dont_care_7458>:
     332:	ff 3f ff 3f ff 3f                                   .?.?.?

00000338 <logic_7458>:
     338:	bf bf a7 b8 00 a0                                   ......

0000033e <IC_7455>:
     33e:	1f 1d 00 00 7f 3f 74 03 60 03 4c 03 00 0a           .....?t.`.L...

0000034c <CLK_7455>:
	...

00000360 <Dont_care_7455>:
     360:	ff 3f ff 3f ff 3f ff 3f ff 3f ff 3f ff 3f ff 3f     .?.?.?.?.?.?.?.?
     370:	ff 3f ff 3f                                         .?.?

00000374 <logic_7455>:
     374:	0f a1 00 bf 81 bb 82 b9 83 b7 84 b5 85 b3 86 b1     ................
     384:	87 af 88 ad                                         ....

00000388 <IC_7451>:
     388:	1b 1d 00 00 5f 3f be 03 aa 03 96 03 00 0a           ...._?........

00000396 <CLK_7451>:
	...

000003aa <Dont_care_7451>:
     3aa:	ff 3f ff 3f ff 3f ff 3f ff 3f ff 3f ff 3f ff 3f     .?.?.?.?.?.?.?.?
     3ba:	ff 3f ff 3f                                         .?.?

000003be <logic_7451>:
     3be:	21 b3 a2 b2 a5 a1 86 a0 a8 a1 30 a3 98 a2 ad a0     !.........0.....
     3ce:	33 b0 9e b0                                         3...

000003d2 <IC_7450>:
     3d2:	1a 1d 00 00 5f 3f f0 03 e8 03 e0 03 00 04           ...._?........

000003e0 <CLK_7450>:
	...

000003e8 <Dont_care_7450>:
     3e8:	ff 3f ff 3f ff 3f ff 3f                             .?.?.?.?

000003f0 <logic_7450>:
     3f0:	a0 a8 1f bb ab a9 19 b8                             ........

000003f8 <IC_7447>:
     3f8:	17 1d 00 00 f7 80 2e 04 1a 04 06 04 00 0a           ..............

00000406 <CLK_7447>:
	...

0000041a <Dont_care_7447>:
     41a:	ff ff ff ff ff ff ff ff ff ff ff ff ff ff ff ff     ................
     42a:	ff ff ff ff                                         ....

0000042e <logic_7447>:
     42e:	1c a0 4c f3 1d c4 4d c1 1e 93 4e 89 1f 98 4f e3     ..L...M...N...O.
     43e:	3c 80 6c 83                                         <.l.

00000442 <IC_7446>:
     442:	16 1d 00 00 f7 80 78 04 64 04 50 04 00 0a           ......x.d.P...

00000450 <CLK_7446>:
	...

00000464 <Dont_care_7446>:
     464:	ff ff ff ff ff ff ff ff ff ff ff ff ff ff ff ff     ................
     474:	ff ff ff ff                                         ....

00000478 <logic_7446>:
     478:	1c a0 4c f3 1d c4 4d c1 1e 93 4e 89 1f 98 4f e3     ..L...M...N...O.
     488:	3c 80 6c 83                                         <.l.

0000048c <IC_7442>:
     48c:	12 1d 00 00 80 f8 c2 04 ae 04 9a 04 00 0a           ..............

0000049a <CLK_7442>:
	...

000004ae <Dont_care_7442>:
     4ae:	ff ff ff ff ff ff ff ff ff ff ff ff ff ff ff ff     ................
     4be:	ff ff ff ff                                         ....

000004c2 <logic_7442>:
     4c2:	7e 87 7d c7 7b a7 77 e7 6f 97 5f d7 3f b7 7f f6     ~.}.{.w.o._.?...
     4d2:	7f 8d 7f cb                                         ....

000004d6 <IC_7440>:
     4d6:	10 1d 00 00 5f 3f 08 05 f6 04 e4 04 00 09           ...._?........

000004e4 <CLK_7440>:
	...

000004f6 <Dont_care_7440>:
     4f6:	ff 3f ff 3f ff 3f ff 3f ff 3f ff 3f ff 3f ff 3f     .?.?.?.?.?.?.?.?
     506:	ff 3f                                               .?

00000508 <logic_7440>:
     508:	a0 a0 a1 a1 a2 a2 a3 a3 a8 a8 a9 a9 aa aa ab ab     ................
     518:	1f bf                                               ..

0000051a <IC_74393>:
     51a:	99 22 01 00 43 38 64 05 46 05 28 05 00 0f           ."..C8d.F.(...

00000528 <CLK_74393>:
	...

00000546 <Dont_care_74393>:
     546:	43 38 43 38 43 38 ff 3f ff 3f ff 3f ff 3f ff 3f     C8C8C8.?.?.?.?.?
     556:	ff 3f ff 3f ff 3f ff 3f ff 3f ff 3f ff 3f           .?.?.?.?.?.?.?

00000564 <logic_74393>:
     564:	00 a0 00 a0 00 a0 03 b8 01 b0 04 a4 05 b4 08 a2     ................
     574:	09 b2 0c a6 0d b6 10 a1 11 b1 14 a5 15 b5           ..............

00000582 <IC_74390>:
     582:	96 22 01 00 8b e8 c0 05 a8 05 90 05 00 0c           ."............

00000590 <CLK_74390>:
     590:	00 00 00 00 01 40 01 40 01 40 01 40 01 40 01 40     .....@.@.@.@.@.@
     5a0:	01 40 01 40 01 40 01 40                             .@.@.@.@

000005a8 <Dont_care_74390>:
     5a8:	8b e8 ff ff ff ff ff ff ff ff ff ff ff ff ff ff     ................
     5b8:	ff ff ff ff ff ff ff ff                             ........

000005c0 <logic_74390>:
     5c0:	02 a0 00 80 04 90 10 84 14 94 20 82 24 92 30 86     .......... .$.0.
     5d0:	34 96 40 81 44 91 00 80                             4.@.D...

000005d8 <IC_74386>:
     5d8:	92 22 01 00 f3 39 f6 05 ee 05 e6 05 00 04           ."...9........

000005e6 <CLK_74386>:
	...

000005ee <Dont_care_74386>:
     5ee:	ff 3f ff 3f ff 3f ff 3f                             .?.?.?.?

000005f6 <logic_74386>:
     5f6:	00 a0 9d ae 2e b7 b3 b9                             ........

000005fe <IC_7438>:
     5fe:	0e 1d 00 00 5b 3b 1c 06 14 06 0c 06 00 04           ....[;........

0000060c <CLK_7438>:
	...

00000614 <Dont_care_7438>:
     614:	ff 3f ff 3f ff 3f ff 3f                             .?.?.?.?

0000061c <logic_7438>:
     61c:	a4 a4 ad ad b6 b6 1b bb                             ........

00000624 <IC_74375>:
     624:	87 22 01 00 c9 c9 42 06 3a 06 32 06 00 04           ."....B.:.2...

00000632 <CLK_74375>:
	...

0000063a <Dont_care_74375>:
     63a:	ff ff ff ff ff ff ff ff                             ........

00000642 <logic_74375>:
     642:	2a aa 5d dd 55 d5 14 94                             *.].U...

0000064a <IC_7437>:
     64a:	0d 1d 00 00 5b 3b 68 06 60 06 58 06 00 04           ....[;h.`.X...

00000658 <CLK_7437>:
	...

00000660 <Dont_care_7437>:
     660:	ff 3f ff 3f ff 3f ff 3f                             .?.?.?.?

00000668 <logic_7437>:
     668:	a4 a4 ad ad b6 b6 1b bb                             ........

00000670 <IC_74368>:
     670:	80 22 01 00 ab ea 8e 06 86 06 7e 06 00 04           ."........~...

0000067e <CLK_74368>:
	...

00000686 <Dont_care_74368>:
     686:	ff ff ff ff ff ff ff ff                             ........

0000068e <logic_74368>:
     68e:	7f ff 55 95 54 95 2a aa                             ..U.T.*.

00000696 <IC_74367>:
     696:	7f 22 01 00 ab ea b8 06 ae 06 a4 06 00 05           ."............

000006a4 <CLK_74367>:
	...

000006ae <Dont_care_74367>:
     6ae:	ff ff ff ff ff ff ff ff ab ea                       ..........

000006b8 <logic_74367>:
     6b8:	7f ff 00 80 7e bf 60 80 02 82                       ....~.`...

000006c2 <IC_74366>:
     6c2:	7e 22 01 00 ab ea e8 06 dc 06 d0 06 00 06           ~"............

000006d0 <CLK_74366>:
	...

000006dc <Dont_care_74366>:
     6dc:	ff ff ff ff ff ff ff ff ff ff ff ff                 ............

000006e8 <logic_74366>:
     6e8:	55 95 54 d5 7f ff 7e ff 2a aa 54 95                 U.T...~.*.T.

000006f4 <IC_74365>:
     6f4:	7d 22 01 00 ab ea 22 07 12 07 02 07 00 08           }"....".......

00000702 <CLK_74365>:
	...

00000712 <Dont_care_74365>:
     712:	ff ff ff ff ff ff ff ff ff ff ff ff ff ff ff ff     ................

00000722 <logic_74365>:
     722:	7f ff 7e ff 7e bf 00 80 7f bf 7e ff 55 95 54 d5     ..~.~.....~.U.T.

00000732 <IC_7432>:
     732:	08 1d 00 00 5b 3b 50 07 48 07 40 07 00 04           ....[;P.H.@...

00000740 <CLK_7432>:
	...

00000748 <Dont_care_7432>:
     748:	ff 3f ff 3f ff 3f ff 3f                             .?.?.?.?

00000750 <logic_7432>:
     750:	00 a0 b6 ad ad b6 bf bf                             ........

00000758 <IC_7430>:
     758:	06 1d 00 00 7f 3f 8e 07 7a 07 66 07 00 0a           .....?..z.f...

00000766 <CLK_7430>:
	...

0000077a <Dont_care_7430>:
     77a:	ff 3f ff 3f ff 3f ff 3f ff 3f ff 3f ff 3f ff 3f     .?.?.?.?.?.?.?.?
     78a:	ff 3f ff 3f                                         .?.?

0000078e <logic_7430>:
     78e:	3f ac be ac bd ac bb ac b7 ac af ac 9f ac bf a8     ?...............
     79e:	bf a4 81 a0                                         ....

000007a2 <IC_74298>:
     7a2:	3a 22 01 00 ff 87 b8 07 b4 07 b0 07 00 02           :"............

000007b0 <CLK_74298>:
     7b0:	00 04 00 04                                         ....

000007b4 <Dont_care_74298>:
     7b4:	ff ff ff ff                                         ....

000007b8 <logic_74298>:
     7b8:	25 d1 25 ab                                         %.%.

000007bc <IC_74294>:
     7bc:	36 22 01 00 9b e4 ee 07 dc 07 ca 07 00 09           6"............

000007ca <CLK_74294>:
     7ca:	08 00 08 00 08 00 08 00 08 00 08 00 08 00 08 00     ................
     7da:	08 00                                               ..

000007dc <Dont_care_74294>:
     7dc:	9b e4 df e4 df e4 df e4 df e4 df e4 df e4 df e4     ................
     7ec:	df e4                                               ..

000007ee <logic_74294>:
     7ee:	01 80 01 84 01 84 41 84 41 84 01 84 01 84 41 84     ......A.A.....A.
     7fe:	41 84                                               A.

00000800 <IC_74293>:
     800:	35 22 01 00 67 3e 3e 08 26 08 0e 08 00 0c           5"..g>>.&.....

0000080e <CLK_74293>:
	...

00000826 <Dont_care_74293>:
     826:	ff 3f ff 3f ff 3f ff 3f ff 3f ff 3f ff 3f ff 3f     .?.?.?.?.?.?.?.?
     836:	ff 3f ff 3f ff 3f ff 3f                             .?.?.?.?

0000083e <logic_74293>:
     83e:	00 be 00 a6 00 a5 00 a7 10 a3 10 a7 08 a3 08 a7     ................
     84e:	18 a3 18 a7 80 a3 80 a7                             ........

00000856 <IC_74292>:
     856:	34 22 01 00 9b ef 7c 08 70 08 64 08 00 06           4"....|.p.d...

00000864 <CLK_74292>:
     864:	00 00 08 00 08 00 08 00 08 00 08 00                 ............

00000870 <Dont_care_74292>:
     870:	9b ef ff ff ff ff ff ff ff ff ff ff                 ............

0000087c <logic_74292>:
     87c:	01 80 01 84 01 84 41 84 41 84 01 84                 ......A.A...

00000888 <IC_74283>:
     888:	2b 22 01 00 f6 ed ae 08 a2 08 96 08 00 06           +"............

00000896 <CLK_74283>:
	...

000008a2 <Dont_care_74283>:
     8a2:	ff ff ff ff ff ff ff ff ff ff ff ff                 ............

000008ae <logic_74283>:
     8ae:	00 80 48 80 7f ff 2d ba 31 e2 4e 9d                 ..H...-.1.N.

000008ba <IC_74280>:
     8ba:	28 22 01 00 cf 3f e8 08 d8 08 c8 08 00 08           ("...?........

000008c8 <CLK_74280>:
	...

000008d8 <Dont_care_74280>:
     8d8:	ff 3f ff 3f ff 3f ff 3f ff 3f ff 3f ff 3f ff 3f     .?.?.?.?.?.?.?.?

000008e8 <logic_74280>:
     8e8:	29 b5 92 aa ab bf 10 a0 ab b0 20 bf 23 b3 98 a6     )......... .#...

000008f8 <IC_7428>:
     8f8:	04 1d 00 00 f6 2d 16 09 0e 09 06 09 00 04           .....-........

00000906 <CLK_7428>:
	...

0000090e <Dont_care_7428>:
     90e:	ff 3f ff 3f ff 3f ff 3f                             .?.?.?.?

00000916 <logic_7428>:
     916:	09 b2 92 a4 24 a9 b6 ad                             ....$...

0000091e <IC_7427>:
     91e:	03 1d 00 00 5f 37 4c 09 3c 09 2c 09 00 08           ...._7L.<.,...

0000092c <CLK_7427>:
	...

0000093c <Dont_care_7427>:
     93c:	ff 3f ff 3f ff 3f ff 3f ff 3f ff 3f ff 3f ff 3f     .?.?.?.?.?.?.?.?

0000094c <logic_7427>:
     94c:	a0 a8 04 b1 09 a2 0d b3 12 a4 15 b5 1b a6 1f b7     ................

0000095c <IC_74266>:
     95c:	1a 22 01 00 f3 39 7a 09 72 09 6a 09 00 04           ."...9z.r.j...

0000096a <CLK_74266>:
	...

00000972 <Dont_care_74266>:
     972:	ff 3f ff 3f ff 3f ff 3f                             .?.?.?.?

0000097a <logic_74266>:
     97a:	0c a6 91 a8 22 b1 bf bf                             ...."...

00000982 <IC_74260>:
     982:	14 22 01 00 cf 3f b8 09 a4 09 90 09 00 0a           ."...?........

00000990 <CLK_74260>:
	...

000009a4 <Dont_care_74260>:
     9a4:	ff 3f ff 3f ff 3f ff 3f ff 3f ff 3f ff 3f ff 3f     .?.?.?.?.?.?.?.?
     9b4:	ff 3f ff 3f                                         .?.?

000009b8 <logic_74260>:
     9b8:	30 a0 85 b2 0a ad 8b bd 04 ae 8f bf 81 a0 07 b7     0...............
     9c8:	86 ab 8d b9                                         ....

000009cc <IC_7426>:
     9cc:	02 1d 00 00 5b 3b ea 09 e2 09 da 09 00 04           ....[;........

000009da <CLK_7426>:
	...

000009e2 <Dont_care_7426>:
     9e2:	ff 3f ff 3f ff 3f ff 3f                             .?.?.?.?

000009ea <logic_7426>:
     9ea:	a4 a4 ad b6 b6 ad 1b bb                             ........

000009f2 <IC_74259>:
     9f2:	13 22 01 00 87 f0 20 0a 10 0a 00 0a 00 08           .".... .......

00000a00 <CLK_74259>:
	...

00000a10 <Dont_care_74259>:
     a10:	ff ff ff ff ff ff ff ff ff ff ff ff ff ff ff ff     ................

00000a20 <logic_74259>:
     a20:	01 a0 02 b0 04 b0 08 90 11 90 22 90 43 90 04 91     ..........".C...

00000a30 <IC_74258>:
     a30:	12 22 01 00 b7 f6 66 0a 52 0a 3e 0a 00 0a           ."....f.R.>...

00000a3e <CLK_74258>:
	...

00000a52 <Dont_care_74258>:
     a52:	ff ff ff ff ff ff ff ff ff ff ff ff ff ff ff ff     ................
     a62:	ff ff ff ff                                         ....

00000a66 <logic_74258>:
     a66:	48 c9 7f ff 48 89 6c 9b 12 a4 36 b6 49 89 5b ad     H...H.l...6.I.[.
     a76:	25 92 37 b6                                         %.7.

00000a7a <IC_74257>:
     a7a:	11 22 01 00 b7 f6 b0 0a 9c 0a 88 0a 00 0a           ."............

00000a88 <CLK_74257>:
	...

00000a9c <Dont_care_74257>:
     a9c:	ff ff ff ff ff ff ff ff ff ff ff ff ff ff ff ff     ................
     aac:	ff ff ff ff                                         ....

00000ab0 <logic_74257>:
     ab0:	48 c9 7f ff 00 80 24 92 5a ad 7e bf 01 80 13 a4     H.....$.Z.~.....
     ac0:	6d 9b 7f bf                                         m...

00000ac4 <IC_74253>:
     ac4:	0d 22 01 00 bf fe f2 0a e2 0a d2 0a 00 08           ."............

00000ad2 <CLK_74253>:
	...

00000ae2 <Dont_care_74253>:
     ae2:	ff ff ff ff ff ff ff ff ff ff ff ff ff ff ff ff     ................

00000af2 <logic_74253>:
     af2:	41 c1 7f ff 00 80 60 83 00 a0 50 a5 02 80 4a 89     A.....`...P...J.

00000b02 <IC_74251>:
     b02:	0b 22 01 00 cf ff 30 0b 20 0b 10 0b 00 08           ."....0. .....

00000b10 <CLK_74251>:
	...

00000b20 <Dont_care_74251>:
     b20:	ff ff ff ff ff ff ff ff ff ff ff ff ff ff ff ff     ................

00000b30 <logic_74251>:
     b30:	25 a8 15 d4 25 d2 15 d6 15 d1 25 d5 15 d3 25 d7     %...%.....%...%.

00000b40 <IC_7425>:
     b40:	01 1d 00 00 5f 3f 8e 0b 6e 0b 4e 0b 00 10           ...._?..n.N...

00000b4e <CLK_7425>:
	...

00000b6e <Dont_care_7425>:
     b6e:	ff 3f ff 3f ff 3f ff 3f ff 3f ff 3f ff 3f ff 3f     .?.?.?.?.?.?.?.?
     b7e:	ff 3f ff 3f ff 3f ff 3f ff 3f ff 3f ff 3f ff 3f     .?.?.?.?.?.?.?.?

00000b8e <logic_7425>:
     b8e:	05 a5 06 a6 07 a7 0c ac 0d ad 0e ae 0f af 14 b4     ................
     b9e:	15 b5 16 b6 17 b7 1c bc 1d bd 1e be 1f bf a4 a4     ................

00000bae <IC_74243>:
     bae:	03 22 01 00 c3 3f cc 0b c4 0b bc 0b 00 04           ."...?........

00000bbc <CLK_74243>:
	...

00000bc4 <Dont_care_74243>:
     bc4:	ff 3f ff 3f ff 3f ff 3f                             .?.?.?.?

00000bcc <logic_74243>:
     bcc:	bd b7 01 b0 bc a7 00 a0                             ........

00000bd4 <IC_74242>:
     bd4:	02 22 01 00 c3 3f f2 0b ea 0b e2 0b 00 04           ."...?........

00000be2 <CLK_74242>:
	...

00000bea <Dont_care_74242>:
     bea:	ff 3f ff 3f ff 3f ff 3f                             .?.?.?.?

00000bf2 <logic_74242>:
     bf2:	3d b0 81 b7 80 a7 3c a0                             =.....<.

00000bfa <IC_74237>:
     bfa:	fd 21 01 00 bf 80 30 0c 1c 0c 08 0c 00 0a           .!....0.......

00000c08 <CLK_74237>:
	...

00000c1c <Dont_care_74237>:
     c1c:	bf 80 ff ff ff ff ff ff ff ff ff ff ff ff ff ff     ................
     c2c:	ff ff ff ff                                         ....

00000c30 <logic_74237>:
     c30:	10 80 18 80 20 c0 21 a0 22 90 23 88 24 84 25 82     .... .!.".#.$.%.
     c40:	26 81 67 80                                         &.g.

00000c44 <IC_7422>:
     c44:	fe 1c 00 00 5f 3f 92 0c 72 0c 52 0c 00 10           ...._?..r.R...

00000c52 <CLK_7422>:
	...

00000c72 <Dont_care_7422>:
     c72:	ff 3f ff 3f ff 3f ff 3f ff 3f ff 3f ff 3f ff 3f     .?.?.?.?.?.?.?.?
     c82:	ff 3f ff 3f ff 3f ff 3f ff 3f ff 3f ff 3f ff 3f     .?.?.?.?.?.?.?.?

00000c92 <logic_7422>:
     c92:	a0 a0 a1 a1 a2 a2 a3 a3 a8 a8 a9 a9 aa aa ab ab     ................
     ca2:	b0 b0 b1 b1 b2 b2 b3 b3 b8 b8 b9 b9 ba ba 1b bb     ................

00000cb2 <IC_7421>:
     cb2:	fd 1c 00 00 5b 3b d0 0c c8 0c c0 0c 00 04           ....[;........

00000cc0 <CLK_7421>:
	...

00000cc8 <Dont_care_7421>:
     cc8:	fb 3b fb 3b fb 3b fb 3b                             .;.;.;.;

00000cd0 <logic_7421>:
     cd0:	bb bb 12 b2 09 a9 00 a0                             ........

00000cd8 <IC_7420>:
     cd8:	fc 1c 00 00 5f 3f 0a 0d f8 0c e6 0c 00 09           ...._?........

00000ce6 <CLK_7420>:
	...

00000cf8 <Dont_care_7420>:
     cf8:	ff 3f ff 3f ff 3f ff 3f ff 3f ff 3f ff 3f ff 3f     .?.?.?.?.?.?.?.?
     d08:	ff 3f                                               .?

00000d0a <logic_7420>:
     d0a:	a0 a0 a1 a1 a2 a2 a3 a3 a8 a8 a9 a9 aa aa ab ab     ................
     d1a:	1f bf                                               ..

00000d1c <IC_74195>:
     d1c:	d3 21 01 00 ff 83 46 0d 38 0d 2a 0d 00 07           .!....F.8.*...

00000d2a <CLK_74195>:
     d2a:	00 02 00 02 00 02 00 02 00 02 00 02 00 02           ..............

00000d38 <Dont_care_74195>:
     d38:	ff ff ff ff ff ff ff ff ff ff ff ff ff ff           ..............

00000d46 <logic_74195>:
     d46:	00 84 01 84 01 85 05 85 01 85 07 c5 03 a5           ..............

00000d54 <IC_74194>:
     d54:	d2 21 01 00 ff 87 be 0d 90 0d 62 0d 00 17           .!........b...

00000d62 <CLK_74194>:
     d62:	00 04 00 04 00 04 00 04 00 04 00 04 00 04 00 04     ................
     d72:	00 04 00 04 00 04 00 04 00 04 00 04 00 04 00 04     ................
     d82:	00 04 00 04 00 04 00 04 00 04 00 04 00 04           ..............

00000d90 <Dont_care_74194>:
     d90:	ff ff ff ff ff ff ff ff ff ff ff ff ff ff ff ff     ................
     da0:	ff ff ff ff ff ff ff ff ff ff ff ff ff ff ff ff     ................
     db0:	ff ff ff ff ff ff ff ff ff ff ff ff ff ff           ..............

00000dbe <logic_74194>:
     dbe:	00 80 7e 83 01 80 7f fb 3d fb 43 83 3f c1 43 e1     ..~.....=.C.?.C.
     dce:	43 f1 43 f9 01 b9 7d 99 41 ba 7f fa 01 f2 3f e2     C.C...}.A.....?.
     dde:	01 e0 7f e0 7f ca 7f 9a 7f ba 7f fa 7e 83           ............~.

00000dec <IC_74193>:
     dec:	d1 21 01 00 99 e7 76 0e 38 0e fa 0d 00 1f           .!....v.8.....

00000dfa <CLK_74193>:
     dfa:	00 00 00 00 00 00 08 00 08 00 08 00 08 00 08 00     ................
     e0a:	08 00 08 00 08 00 08 00 08 00 08 00 08 00 08 00     ................
     e1a:	08 00 00 00 00 00 00 00 00 00 00 00 10 00 10 00     ................
     e2a:	10 00 10 00 10 00 10 00 10 00 10 00 00 20           ............. 

00000e38 <Dont_care_74193>:
     e38:	ff ff ff ff ff ff ff ff ff ff ff ff ff ff ff ff     ................
     e48:	ff ff ff ff ff ff ff ff ff ff ff ff ff ff ff ff     ................
     e58:	ff ff ff ff ff ff ff ff ff ff ff ff ff ff ff ff     ................
     e68:	ff ff ff ff ff ff ff ff ff ff ff ff ff ff           ..............

00000e76 <logic_74193>:
     e76:	5b 99 3c da 7f db 73 df 75 df 71 df 57 df 53 df     [.<...s.u.q.W.S.
     e86:	55 df 51 df 37 df 33 df 35 df 31 df 17 df 13 df     U.Q.7.3.5.1.....
     e96:	15 df 19 df 11 cf 7f df 6f d7 19 df 0d df 0b df     ........o.......
     ea6:	0f df 29 df 2d df 2b df 2f df 49 df 19 df           ..).-.+./.I...

00000eb4 <IC_74192>:
     eb4:	d0 21 01 00 99 ff de 0e d0 0e c2 0e 00 07           .!............

00000ec2 <CLK_74192>:
	...

00000ed0 <Dont_care_74192>:
     ed0:	ff ff ff ff ff ff ff ff ff ff ff ff ff ff           ..............

00000ede <logic_74192>:
     ede:	18 bd 18 9d 58 99 58 9d 48 9d 5c 9d 4c 95           ....X.X.H.\.L.

00000eec <IC_74191>:
     eec:	cf 21 01 00 99 e7 1e 0f 0c 0f fa 0e 00 09           .!............

00000efa <CLK_74191>:
     efa:	00 20 00 20 00 20 00 20 00 20 00 20 00 20 00 20     . . . . . . . . 
     f0a:	00 20                                               . 

00000f0c <Dont_care_74191>:
     f0c:	ff ff ff ff ff ff ff ff ff ff ff ff ff ff ff ff     ................
     f1c:	ff ff                                               ..

00000f1e <logic_74191>:
     f1e:	00 90 08 94 04 94 02 94 06 94 20 94 16 94 12 94     .......... .....
     f2e:	14 94                                               ..

00000f30 <IC_74190>:
     f30:	ce 21 01 00 99 e7 62 0f 50 0f 3e 0f 00 09           .!....b.P.>...

00000f3e <CLK_74190>:
     f3e:	00 20 00 20 00 20 00 20 00 20 00 20 00 20 00 20     . . . . . . . . 
     f4e:	00 20                                               . 

00000f50 <Dont_care_74190>:
     f50:	ff ff ff ff ff ff ff ff ff ff ff ff ff ff ff ff     ................
     f60:	ff ff                                               ..

00000f62 <logic_74190>:
     f62:	00 90 08 94 04 94 02 94 06 94 20 94 16 94 12 94     .......... .....
     f72:	14 94                                               ..

00000f74 <IC_74182>:
     f74:	c6 21 01 00 bf f0 8a 0f 86 0f 82 0f 00 02           .!............

00000f82 <CLK_74182>:
     f82:	00 00 00 00                                         ....

00000f86 <Dont_care_74182>:
     f86:	ff ff ff ff                                         ....

00000f8a <logic_74182>:
     f8a:	73 9b 15 a2                                         s...

00000f8e <IC_7418>:
     f8e:	fa 1c 00 00 5f 3f c0 0f ae 0f 9c 0f 00 09           ...._?........

00000f9c <CLK_7418>:
	...

00000fae <Dont_care_7418>:
     fae:	ff 3f ff 3f ff 3f ff 3f ff 3f ff 3f ff 3f ff 3f     .?.?.?.?.?.?.?.?
     fbe:	ff 3f                                               .?

00000fc0 <logic_7418>:
     fc0:	a0 a0 a1 a1 a2 a2 a3 a3 a8 a8 a9 a9 aa aa ab ab     ................
     fd0:	1f bf                                               ..

00000fd2 <IC_74175>:
     fd2:	bf 21 01 00 99 99 f0 0f e8 0f e0 0f 00 04           .!............

00000fe0 <CLK_74175>:
     fe0:	00 01 00 01 00 01 00 01                             ........

00000fe8 <Dont_care_74175>:
     fe8:	ff ff ff ff ff ff ff ff                             ........

00000ff0 <logic_74175>:
     ff0:	24 a4 3c bc 5b da 25 a4                             $.<.[.%.

00000ff8 <IC_74174>:
     ff8:	be 21 01 00 ad b5 1e 10 12 10 06 10 00 06           .!............

00001006 <CLK_74174>:
    1006:	00 01 00 01 00 01 00 01 00 01 00 01                 ............

00001012 <Dont_care_74174>:
    1012:	ff ff ff ff ff ff ff ff ff ff ff ff                 ............

0000101e <logic_74174>:
    101e:	00 80 2c b4 67 98 19 e6 7f fe 2c b4                 ..,.g.....,.

0000102a <IC_74173>:
    102a:	bd 21 01 00 c3 ff 74 10 56 10 38 10 00 0f           .!....t.V.8...

00001038 <CLK_74173>:
    1038:	40 00 40 00 40 00 40 00 40 00 40 00 40 00 40 00     @.@.@.@.@.@.@.@.
    1048:	40 00 40 00 40 00 40 00 40 00 40 00 40 00           @.@.@.@.@.@.@.

00001056 <Dont_care_74173>:
    1056:	ff ff ff ff ff ff ff ff ff ff ff ff ff ff ff ff     ................
    1066:	ff ff ff ff ff ff ff ff ff ff ff ff ff ff           ..............

00001074 <logic_74173>:
    1074:	00 c0 00 ff 28 94 28 a9 28 aa 28 ab 14 a8 14 95     ....(.(.(.(.....
    1084:	14 96 14 97 28 94 30 8c 00 ff 0c b0 00 ff           ....(.0.......

00001092 <IC_7417>:
    1092:	f9 1c 00 00 55 35 a8 10 a4 10 a0 10 00 02           ....U5........

000010a0 <CLK_7417>:
    10a0:	00 00 00 00                                         ....

000010a4 <Dont_care_7417>:
    10a4:	ff 3f ff 3f                                         .?.?

000010a8 <logic_7417>:
    10a8:	bf bf 00 a0                                         ....

000010ac <IC_74166>:
    10ac:	b6 21 01 00 ff ef ea 10 d2 10 ba 10 00 0c           .!............

000010ba <CLK_74166>:
    10ba:	40 00 40 00 40 00 40 00 40 00 40 00 40 00 40 00     @.@.@.@.@.@.@.@.
    10ca:	40 00 40 00 40 00 40 00                             @.@.@.@.

000010d2 <Dont_care_74166>:
    10d2:	ff ff ff ff ff ff ff ff ff ff ff ff ff ff ff ff     ................
    10e2:	ff ff ff ff ff ff ff ff                             ........

000010ea <logic_74166>:
    10ea:	00 80 1f ee 00 81 1f ef 00 81 1f bf 01 d1 1f ff     ................
    10fa:	00 d1 1e ff 21 d1 3e bf                             ....!.>.

00001102 <IC_74165>:
    1102:	b5 21 01 00 bf fe 28 11 1c 11 10 11 00 06           .!....(.......

00001110 <CLK_74165>:
    1110:	02 00 02 00 02 00 02 00 02 00 02 00                 ............

0000111c <Dont_care_74165>:
    111c:	ff ff ff ff ff ff ff ff ff ff ff ff                 ............

00001128 <logic_74165>:
    1128:	40 80 48 80 49 80 51 82 21 83 41 82                 @.H.I.Q.!.A.

00001134 <IC_74164>:
    1134:	b4 21 01 00 c3 21 62 11 52 11 42 11 00 08           .!...!b.R.B...

00001142 <CLK_74164>:
    1142:	80 00 80 00 80 00 80 00 80 00 80 00 80 00 80 00     ................

00001152 <Dont_care_74164>:
    1152:	ff 3f ff 3f ff 3f ff 3f ff 3f ff 3f ff 3f ff 3f     .?.?.?.?.?.?.?.?

00001162 <logic_74164>:
    1162:	00 a0 03 a0 00 a1 07 a1 0f a1 18 a1 32 a1 21 a3     ............2.!.

00001172 <IC_74163>:
    1172:	b3 21 01 00 ff 83 c4 11 a2 11 80 11 00 11           .!............

00001180 <CLK_74163>:
    1180:	00 00 00 00 02 00 02 00 02 00 02 00 02 00 02 00     ................
    1190:	02 00 02 00 02 00 02 00 02 00 00 00 00 00 00 00     ................
	...

000011a2 <Dont_care_74163>:
    11a2:	ff 83 ff 83 ff ff ff ff ff ff ff ff ff ff ff ff     ................
    11b2:	ff ff ff ff ff ff ff ff ff ff ff ff ff ff ff ff     ................
    11c2:	ff ff                                               ..

000011c4 <logic_74163>:
    11c4:	02 80 01 80 00 80 04 83 71 8e 41 af 41 9f 41 ff     ........q.A.A.A.
    11d4:	41 83 41 a3 41 93 41 b3 41 8b 43 ab 42 ab 40 ab     A.A.A.A.A.C.B.@.
    11e4:	42 83                                               B.

000011e6 <IC_74162>:
    11e6:	b2 21 01 00 ff 83 3c 12 18 12 f4 11 00 12           .!....<.......

000011f4 <CLK_74162>:
    11f4:	00 00 02 00 02 00 02 00 02 00 02 00 02 00 02 00     ................
    1204:	02 00 02 00 02 00 02 00 02 00 00 00 00 00 00 00     ................
    1214:	00 00 02 00                                         ....

00001218 <Dont_care_74162>:
    1218:	ff 83 ff ff ff ff ff ff ff ff ff ff ff ff ff ff     ................
    1228:	ff ff ff ff ff ff ff ff ff ff ff ff ff ff ff ff     ................
    1238:	ff ff ff 83                                         ....

0000123c <logic_74162>:
    123c:	02 80 00 80 00 80 04 83 41 81 01 83 00 83 1d b8     ........A.......
    124c:	71 87 41 e7 41 83 41 a3 41 93 43 b3 42 b3 40 b3     q.A.A.A.A.C.B.@.
    125c:	42 83 41 83                                         B.A.

00001260 <IC_74161>:
    1260:	b1 21 01 00 ff 83 ae 12 8e 12 6e 12 00 10           .!........n...

0000126e <CLK_74161>:
    126e:	00 00 00 00 02 00 02 00 02 00 02 00 02 00 02 00     ................
    127e:	02 00 02 00 02 00 02 00 00 00 00 00 00 00 02 00     ................

0000128e <Dont_care_74161>:
    128e:	ff ff ff ff ff ff ff ff ff ff ff ff ff ff ff ff     ................
    129e:	ff ff ff ff ff ff ff ff ff ff ff ff ff ff ff 83     ................

000012ae <logic_74161>:
    12ae:	02 80 42 83 41 81 01 83 01 81 01 80 71 8e 41 af     ..B.A.......q.A.
    12be:	41 9f 41 ff 41 83 41 a3 43 93 41 93 40 83 41 83     A.A.A.A.C.A.@.A.

000012ce <IC_74160>:
    12ce:	b0 21 01 00 ff 83 14 13 f8 12 dc 12 00 0e           .!............

000012dc <CLK_74160>:
    12dc:	02 00 02 00 02 00 02 00 02 00 02 00 02 00 02 00     ................
    12ec:	02 00 02 00 02 00 00 00 00 00 00 00                 ............

000012f8 <Dont_care_74160>:
    12f8:	ff ff ff ff ff ff ff ff ff ff ff ff ff ff ff ff     ................
    1308:	ff ff ff ff ff ff ff ff ff ff ff ff                 ............

00001314 <logic_74160>:
    1314:	00 80 40 83 5d ba 41 87 5d e7 41 83 41 a3 41 93     ..@.].A.].A.A.A.
    1324:	41 b3 41 8b 41 ab 43 9b 41 9b 40 83                 A.A.A.C.A.@.

00001330 <IC_7416>:
    1330:	f8 1c 00 00 55 35 46 13 42 13 3e 13 00 02           ....U5F.B.>...

0000133e <CLK_7416>:
    133e:	00 00 00 00                                         ....

00001342 <Dont_care_7416>:
    1342:	ff 3f ff 3f                                         .?.?

00001346 <logic_7416>:
    1346:	aa aa 15 b5                                         ....

0000134a <IC_74158>:
    134a:	ae 21 01 00 b7 f6 80 13 6c 13 58 13 00 0a           .!......l.X...

00001358 <CLK_74158>:
	...

0000136c <Dont_care_74158>:
    136c:	ff ff ff ff ff ff ff ff ff ff ff ff ff ff ff ff     ................
    137c:	ff ff ff ff                                         ....

00001380 <logic_74158>:
    1380:	5a db 6d ed 48 89 6c 9b 12 a4 36 b6 49 89 5b ad     Z.m.H.l...6.I.[.
    1390:	25 92 37 b6                                         %.7.

00001394 <IC_74157>:
    1394:	ad 21 01 00 b7 f6 ca 13 b6 13 a2 13 00 0a           .!............

000013a2 <CLK_74157>:
	...

000013b6 <Dont_care_74157>:
    13b6:	ff ff ff ff ff ff ff ff ff ff ff ff ff ff ff ff     ................
    13c6:	ff ff ff ff                                         ....

000013ca <logic_74157>:
    13ca:	7f bf 25 d2 00 80 24 92 5a ad 7e bf 01 80 13 a4     ..%...$.Z.~.....
    13da:	6d 9b 12 e4                                         m...

000013de <IC_74153>:
    13de:	a9 21 01 00 bf fe 34 14 10 14 ec 13 00 12           .!....4.......

000013ec <CLK_74153>:
	...

00001410 <Dont_care_74153>:
    1410:	ff ff ff ff ff ff ff ff ff ff ff ff ff ff ff ff     ................
    1420:	ff ff ff ff ff ff ff ff ff ff ff ff ff ff ff ff     ................
    1430:	ff ff ff ff                                         ....

00001434 <logic_74153>:
    1434:	29 ea 17 d4 14 ca 68 d4 28 ea 56 f4 16 ca 6a d4     ).....h.(.V...j.
    1444:	2a ea 56 f4 29 94 15 8b 29 aa 15 b5 2b 92 17 8d     *.V.)...)...+...
    1454:	2b aa 17 b5                                         +...

00001458 <IC_74151>:
    1458:	a7 21 01 00 cf ff ae 14 8a 14 66 14 00 12           .!........f...

00001466 <CLK_74151>:
	...

0000148a <Dont_care_74151>:
    148a:	ff ff ff ff ff ff ff ff ff ff ff ff ff ff ff ff     ................
    149a:	ff ff ff ff ff ff ff ff ff ff ff ff ff ff ff ff     ................
    14aa:	ff ff ff ff                                         ....

000014ae <logic_74151>:
    14ae:	6a d5 65 aa 27 f8 18 80 2b fc 14 84 2d fa 12 82     j.e.'...+...-...
    14be:	2e fe 11 86 2f b9 10 c1 2f dd 10 a5 2f eb 10 93     ..../.../.../...
    14ce:	2f f7 10 8f                                         /...

000014d2 <IC_7415>:
    14d2:	f7 1c 00 00 5f 37 00 15 f0 14 e0 14 00 08           ...._7........

000014e0 <CLK_7415>:
	...

000014f0 <Dont_care_7415>:
    14f0:	ff 3f ff 3f ff 3f ff 3f ff 3f ff 3f ff 3f ff 3f     .?.?.?.?.?.?.?.?

00001500 <logic_7415>:
    1500:	00 e0 04 f1 09 e2 0d f3 12 e4 16 f5 1b e6 bf ff     ................

00001510 <IC_74148>:
    1510:	a4 21 01 00 9f 9e 46 15 32 15 1e 15 00 0a           .!....F.2.....

0000151e <CLK_74148>:
	...

00001532 <Dont_care_74148>:
    1532:	ff ff ff ff ff ff ff ff ff ff ff ff ff ff ff ff     ................
    1542:	ff ff ff ff                                         ....

00001546 <logic_74148>:
    1546:	7a f5 6f bf 05 d4 0a cb 4d d4 4e cb 2f ca 2f d5     z.o.....M.N././.
    1556:	6f da 6f dd                                         o.o.

0000155a <IC_74147>:
    155a:	a3 21 01 00 9f de 90 15 7c 15 68 15 00 0a           .!......|.h...

00001568 <CLK_74147>:
	...

0000157c <Dont_care_74147>:
    157c:	ff ff ff ff ff ff ff ff ff ff ff ff ff ff ff ff     ................
    158c:	ff ff ff ff                                         ....

00001590 <logic_74147>:
    1590:	7f bf 7f 9c 6f 9f 17 be 1b bf 5d be 5e bf 3f ae     ....o.....].^.?.
    15a0:	3f b7 7f ba                                         ?...

000015a4 <IC_74145>:
    15a4:	a1 21 01 00 80 f8 f2 15 d2 15 b2 15 00 10           .!............

000015b2 <CLK_74145>:
	...

000015d2 <Dont_care_74145>:
    15d2:	ff ff ff ff ff ff ff ff ff ff ff ff ff ff ff ff     ................
    15e2:	ff ff ff ff ff ff ff ff ff ff ff ff ff ff ff ff     ................

000015f2 <logic_74145>:
    15f2:	7e 87 7d c7 7b a7 77 e7 6f 97 5f d7 3f b7 7f f6     ~.}.{.w.o._.?...
    1602:	7f 8d 7f cb 7f af 7f ef 7f 9f 7f df 7f bf 7f ff     ................

00001612 <IC_74140>:
    1612:	9c 21 01 00 5f 3f 44 16 32 16 20 16 00 09           .!.._?D.2. ...

00001620 <CLK_74140>:
	...

00001632 <Dont_care_74140>:
    1632:	ff 3f ff 3f ff 3f ff 3f ff 3f ff 3f ff 3f ff 3f     .?.?.?.?.?.?.?.?
    1642:	ff 3f                                               .?

00001644 <logic_74140>:
    1644:	a0 a0 a1 a1 a2 a2 a3 a3 a8 a8 a9 a9 aa aa ab ab     ................
    1654:	1f bf                                               ..

00001656 <IC_7414>:
    1656:	f6 1c 00 00 55 35 6c 16 68 16 64 16 00 02           ....U5l.h.d...

00001664 <CLK_7414>:
    1664:	00 00 00 00                                         ....

00001668 <Dont_care_7414>:
    1668:	ff 3f ff 3f                                         .?.?

0000166c <logic_7414>:
    166c:	aa aa 15 b5                                         ....

00001670 <IC_74139>:
    1670:	9b 21 01 00 87 f0 96 16 8a 16 7e 16 00 06           .!........~...

0000167e <CLK_74139>:
	...

0000168a <Dont_care_74139>:
    168a:	ff ff ff ff ff ff ff ff ff ff ff ff                 ............

00001696 <logic_74139>:
    1696:	7d ef 7b df 70 87 6a ab 5c 9d 3e be                 }.{.p.j.\.>.

000016a2 <IC_74138>:
    16a2:	9a 21 01 00 bf 80 e0 16 c8 16 b0 16 00 0c           .!............

000016b0 <CLK_74138>:
	...

000016c8 <Dont_care_74138>:
    16c8:	ff ff ff ff ff ff ff ff ff ff ff ff ff ff ff ff     ................
    16d8:	ff ff ff ff ff ff ff ff                             ........

000016e0 <logic_74138>:
    16e0:	7f ff 58 ff 5f ff 40 ff 60 bf 61 df 62 ef 63 f7     ..X._.@.`.a.b.c.
    16f0:	64 fb 65 fd 66 fe 27 ff                             d.e.f.'.

000016f8 <IC_74137>:
    16f8:	99 21 01 00 bf 80 36 17 1e 17 06 17 00 0c           .!....6.......

00001706 <CLK_74137>:
	...

0000171e <Dont_care_74137>:
    171e:	ff ff ff ff ff ff ff ff ff ff ff ff ff ff ff ff     ................
    172e:	ff ff ff ff ff ff ff ff                             ........

00001736 <logic_74137>:
    1736:	7f ff 50 ff 5f ff 40 ff 60 bf 61 df 62 ef 63 f7     ..P._.@.`.a.b.c.
    1746:	64 fb 65 fd 66 fe 27 ff                             d.e.f.'.

0000174e <IC_74136>:
    174e:	98 21 01 00 5b 3b 6c 17 64 17 5c 17 00 04           .!..[;l.d.\...

0000175c <CLK_74136>:
	...

00001764 <Dont_care_74136>:
    1764:	ff 3f ff 3f ff 3f ff 3f                             .?.?.?.?

0000176c <logic_74136>:
    176c:	00 e0 ad ed b6 f6 1b fb                             ........

00001774 <IC_74133>:
    1774:	95 21 01 00 ff fe ba 17 9e 17 82 17 00 0e           .!............

00001782 <CLK_74133>:
	...

0000179e <Dont_care_74133>:
    179e:	ff ff ff ff ff ff ff ff ff ff ff ff ff ff ff ff     ................
    17ae:	ff ff ff ff ff ff ff ff ff ff ff ff                 ............

000017ba <logic_74133>:
    17ba:	00 81 01 81 03 81 00 8f 0f 81 1f 81 00 ff 7f 81     ................
    17ca:	7f 83 7f 87 7f 8f 7f 9f 7f bf 7f fe                 ............

000017d6 <IC_74132>:
    17d6:	94 21 01 00 5b 3b f4 17 ec 17 e4 17 00 04           .!..[;........

000017e4 <CLK_74132>:
	...

000017ec <Dont_care_74132>:
    17ec:	ff 3f ff 3f ff 3f ff 3f                             .?.?.?.?

000017f4 <logic_74132>:
    17f4:	a4 e4 ad ed b6 f6 1b fb                             ........

000017fc <IC_7413>:
    17fc:	f5 1c 00 00 5f 3f 2e 18 1c 18 0a 18 00 09           ...._?........

0000180a <CLK_7413>:
	...

0000181c <Dont_care_7413>:
    181c:	ff 3f ff 3f ff 3f ff 3f ff 3f ff 3f ff 3f ff 3f     .?.?.?.?.?.?.?.?
    182c:	ff 3f                                               .?

0000182e <logic_7413>:
    182e:	a0 e0 a1 e1 a2 e2 a3 e3 a8 e8 a9 e9 aa ea ab eb     ................
    183e:	1f ff                                               ..

00001840 <IC_74126>:
    1840:	8e 21 01 00 5b 3b 5e 18 56 18 4e 18 00 04           .!..[;^.V.N...

0000184e <CLK_74126>:
	...

00001856 <Dont_care_74126>:
    1856:	ff 3f ff 3f ff 3f ff 3f                             .?.?.?.?

0000185e <logic_74126>:
    185e:	bf ff 09 f2 a4 e4 b6 ed                             ........

00001866 <IC_74125>:
    1866:	8d 21 01 00 5b 3b 94 18 84 18 74 18 00 08           .!..[;....t...

00001874 <CLK_74125>:
	...

00001884 <Dont_care_74125>:
    1884:	ff 3f ff 3f ff 3f ff 3f ff 3f ff 3f ff 3f ff 3f     .?.?.?.?.?.?.?.?

00001894 <logic_74125>:
    1894:	b6 ed 00 e0 ad f6 bf ff bd fe af f7 af fe bd f7     ................

000018a4 <IC_74123>:
    18a4:	8b 21 01 00 87 87 ca 18 be 18 b2 18 00 06           .!............

000018b2 <CLK_74123>:
	...

000018be <Dont_care_74123>:
    18be:	ff ff ff ff ff ff ff ff ff ff ff ff                 ............

000018ca <logic_74123>:
    18ca:	48 c8 4b cb 4a ca 4f cf 48 c8 4d cd                 H.K.J.O.H.M.

000018d6 <IC_7412>:
    18d6:	f4 1c 00 00 5f 37 04 19 f4 18 e4 18 00 08           ...._7........

000018e4 <CLK_7412>:
	...

000018f4 <Dont_care_7412>:
    18f4:	ff 3f ff 3f ff 3f ff 3f ff 3f ff 3f ff 3f ff 3f     .?.?.?.?.?.?.?.?

00001904 <logic_7412>:
    1904:	a0 e8 a4 f9 a9 ea ad fb b2 ec b6 fd bb ee 1f f7     ................

00001914 <IC_74113>:
    1914:	81 21 01 00 4f 3e 3a 19 2e 19 22 19 00 06           .!..O>:..."...

00001922 <CLK_74113>:
    1922:	01 10 01 10 01 10 01 10 01 10 01 10                 ............

0000192e <Dont_care_74113>:
    192e:	ff 3f ff 3f ff 3f ff 3f ff 3f ff 3f                 .?.?.?.?.?.?

0000193a <logic_74113>:
    193a:	10 e1 16 ed 18 e3 1c e1 aa ea 1e ef                 ............

00001946 <IC_74112>:
    1946:	80 21 01 00 8f fe 74 19 64 19 54 19 00 08           .!....t.d.T...

00001954 <CLK_74112>:
    1954:	01 10 01 10 01 10 01 10 01 10 01 10 01 10 01 10     ................

00001964 <Dont_care_74112>:
    1964:	ff ff ff ff ff ff ff ff ff ff ff ff ff ff ff ff     ................

00001974 <logic_74112>:
    1974:	10 e1 16 ed 68 82 6e 82 68 e2 1c e7 6a ea 1e ef     ....h.n.h...j...

00001984 <IC_7411>:
    1984:	f3 1c 00 00 5f 37 b2 19 a2 19 92 19 00 08           ...._7........

00001992 <CLK_7411>:
	...

000019a2 <Dont_care_7411>:
    19a2:	ff 3f ff 3f ff 3f ff 3f ff 3f ff 3f ff 3f ff 3f     .?.?.?.?.?.?.?.?

000019b2 <logic_7411>:
    19b2:	00 e0 10 f4 0a e2 05 e1 0f e3 1a f6 15 f5 bf ff     ................

000019c2 <IC_74109>:
    19c2:	7d 21 01 00 9f fc f0 19 e0 19 d0 19 00 08           }!............

000019d0 <CLK_74109>:
    19d0:	08 08 08 08 08 08 08 08 08 08 08 08 08 08 08 08     ................

000019e0 <Dont_care_74109>:
    19e0:	ff ff ff ff ff ff ff ff ff ff ff ff ff ff ff ff     ................

000019f0 <logic_74109>:
    19f0:	50 85 56 b5 21 c2 27 f6 51 c5 33 e6 35 d6 37 f6     P.V.!.'.Q.3.5.7.

00001a00 <IC_74107>:
    1a00:	7b 21 01 00 c9 3f 26 1a 1a 1a 0e 1a 00 06           {!...?&.......

00001a0e <CLK_74107>:
    1a0e:	00 09 00 09 00 09 00 09 00 09 00 09                 ............

00001a1a <Dont_care_74107>:
    1a1a:	ff 3f ff 3f ff 3f ff 3f ff 3f ff 3f                 .?.?.?.?.?.?

00001a26 <logic_74107>:
    1a26:	22 e0 ab e4 22 f2 95 f2 2a f6 9d f6                 "..."...*...

00001a32 <IC_7410>:
    1a32:	f2 1c 00 00 5f 37 60 1a 50 1a 40 1a 00 08           ...._7`.P.@...

00001a40 <CLK_7410>:
	...

00001a50 <Dont_care_7410>:
    1a50:	ff 3f ff 3f ff 3f ff 3f ff 3f ff 3f ff 3f ff 3f     .?.?.?.?.?.?.?.?

00001a60 <logic_7410>:
    1a60:	a0 e8 a4 f9 a9 ea ad fb b2 ec b6 fd bb ee 1f f7     ................

00001a70 <IC_7409>:
    1a70:	f1 1c 00 00 5b 3b 8e 1a 86 1a 7e 1a 00 04           ....[;....~...

00001a7e <CLK_7409>:
	...

00001a86 <Dont_care_7409>:
    1a86:	ff 3f ff 3f ff 3f ff 3f                             .?.?.?.?

00001a8e <logic_7409>:
    1a8e:	bf ff 09 e9 12 f2 00 e0                             ........

00001a96 <IC_7408>:
    1a96:	f0 1c 00 00 5b 3b b4 1a ac 1a a4 1a 00 04           ....[;........

00001aa4 <CLK_7408>:
	...

00001aac <Dont_care_7408>:
    1aac:	ff 3f ff 3f ff 3f ff 3f                             .?.?.?.?

00001ab4 <logic_7408>:
    1ab4:	00 e0 12 f2 09 e9 bf ff                             ........

00001abc <IC_7407>:
    1abc:	ef 1c 00 00 55 35 d2 1a ce 1a ca 1a 00 02           ....U5........

00001aca <CLK_7407>:
    1aca:	00 00 00 00                                         ....

00001ace <Dont_care_7407>:
    1ace:	ff 3f ff 3f                                         .?.?

00001ad2 <logic_7407>:
    1ad2:	bf ff 00 e0                                         ....

00001ad6 <IC_7406>:
    1ad6:	ee 1c 00 00 55 35 ec 1a e8 1a e4 1a 00 02           ....U5........

00001ae4 <CLK_7406>:
    1ae4:	00 00 00 00                                         ....

00001ae8 <Dont_care_7406>:
    1ae8:	ff 3f ff 3f                                         .?.?

00001aec <logic_7406>:
    1aec:	aa ea 15 f5                                         ....

00001af0 <IC_7405>:
    1af0:	ed 1c 00 00 55 35 06 1b 02 1b fe 1a 00 02           ....U5........

00001afe <CLK_7405>:
    1afe:	00 00 00 00                                         ....

00001b02 <Dont_care_7405>:
    1b02:	ff 3f ff 3f                                         .?.?

00001b06 <logic_7405>:
    1b06:	aa ea 15 f5                                         ....

00001b0a <IC_7404>:
    1b0a:	ec 1c 00 00 55 35 20 1b 1c 1b 18 1b 00 02           ....U5 .......

00001b18 <CLK_7404>:
    1b18:	00 00 00 00                                         ....

00001b1c <Dont_care_7404>:
    1b1c:	ff 3f ff 3f                                         .?.?

00001b20 <logic_7404>:
    1b20:	aa ea 15 f5                                         ....

00001b24 <IC_7403>:
    1b24:	eb 1c 00 00 5b 3b 42 1b 3a 1b 32 1b 00 04           ....[;B.:.2...

00001b32 <CLK_7403>:
	...

00001b3a <Dont_care_7403>:
    1b3a:	ff 3f ff 3f ff 3f ff 3f                             .?.?.?.?

00001b42 <logic_7403>:
    1b42:	a4 e4 ad ed b6 f6 1b fb                             ........

00001b4a <IC_7402>:
    1b4a:	ea 1c 00 00 f6 2d 68 1b 60 1b 58 1b 00 04           .....-h.`.X...

00001b58 <CLK_7402>:
	...

00001b60 <Dont_care_7402>:
    1b60:	ff 3f ff 3f ff 3f ff 3f                             .?.?.?.?

00001b68 <logic_7402>:
    1b68:	09 f2 92 e4 24 e9 b6 ed                             ....$...

00001b70 <IC_7401>:
    1b70:	e9 1c 00 00 f6 2d 8e 1b 86 1b 7e 1b 00 04           .....-....~...

00001b7e <CLK_7401>:
	...

00001b86 <Dont_care_7401>:
    1b86:	ff 3f ff 3f ff 3f ff 3f                             .?.?.?.?

00001b8e <logic_7401>:
    1b8e:	09 f2 9b f6 2d fb b6 ed                             ....-...

00001b96 <IC_7400>:
    1b96:	e8 1c 00 00 5b 3b b4 1b ac 1b a4 1b 00 04           ....[;........

00001ba4 <CLK_7400>:
	...

00001bac <Dont_care_7400>:
    1bac:	ff 3f ff 3f ff 3f ff 3f                             .?.?.?.?

00001bb4 <logic_7400>:
    1bb4:	a4 e4 ad ed b6 f6 1b fb                             ........

00001bbc <IC_4572>:
    1bbc:	dc 11 00 00 ea ea da 1b d2 1b ca 1b 00 04           ..............

00001bca <CLK_4572>:
	...

00001bd2 <Dont_care_4572>:
    1bd2:	ff ff ff ff ff ff ff ff                             ........

00001bda <logic_4572>:
    1bda:	15 95 25 b5 4a da 6a ea                             ..%.J.j.

00001be2 <IC_4543>:
    1be2:	bf 11 00 00 ff 80 00 1c f8 1b f0 1b 00 04           ..............

00001bf0 <CLK_4543>:
	...

00001bf8 <Dont_care_4543>:
    1bf8:	ff ff ff ff ff ff ff ff                             ........

00001c00 <logic_4543>:
    1c00:	09 ff 11 86 07 fd 0d 80                             ........

00001c08 <IC_4532>:
    1c08:	b4 11 00 00 9f 9e 3e 1c 2a 1c 16 1c 00 0a           ......>.*.....

00001c16 <CLK_4532>:
	...

00001c2a <Dont_care_4532>:
    1c2a:	ff ff ff ff ff ff ff ff ff ff ff ff ff ff ff ff     ................
    1c3a:	ff ff ff ff                                         ....

00001c3e <logic_4532>:
    1c3e:	00 80 10 c0 78 a1 74 a0 32 a1 31 a0 50 b1 50 a8     ....x.t.2.1.P.P.
    1c4e:	10 a5 10 a2                                         ....

00001c52 <IC_4529>:
    1c52:	b1 11 00 00 ff fc 70 1c 68 1c 60 1c 00 04           ......p.h.`...

00001c60 <CLK_4529>:
	...

00001c68 <Dont_care_4529>:
    1c68:	ff ff ff ff ff ff ff ff                             ........

00001c70 <logic_4529>:
    1c70:	0b eb 2b e8 75 97 54 d4                             ..+.u.T.

00001c78 <IC_4520>:
    1c78:	a8 11 00 00 c3 c3 b2 1c 9c 1c 86 1c 00 0b           ..............

00001c86 <CLK_4520>:
    1c86:	01 01 01 01 01 01 01 01 01 01 01 01 01 01 01 01     ................
    1c96:	01 01 01 01 01 01                                   ......

00001c9c <Dont_care_4520>:
    1c9c:	c3 c3 ff ff ff ff ff ff ff ff ff ff ff ff ff ff     ................
    1cac:	ff ff ff ff ff ff                                   ......

00001cb2 <logic_4520>:
    1cb2:	42 c2 06 86 0a 8a 0e 8e 12 92 16 96 1a 9a 1e 9e     B...............
    1cc2:	22 a2 26 a6 2a aa                                   ".&.*.

00001cc8 <IC_4519>:
    1cc8:	a7 11 00 00 ff e1 ee 1c e2 1c d6 1c 00 06           ..............

00001cd6 <CLK_4519>:
	...

00001ce2 <Dont_care_4519>:
    1ce2:	ff ff ff ff ff ff ff ff ff ff ff ff                 ............

00001cee <logic_4519>:
    1cee:	7e c0 4c ea 1a b7 35 f1 49 a9 67 af                 ~.L...5.I.g.

00001cfa <IC_4518>:
    1cfa:	a6 11 00 00 c3 c3 24 1d 16 1d 08 1d 00 07           ......$.......

00001d08 <CLK_4518>:
    1d08:	01 01 01 01 01 01 01 01 01 01 01 01 01 01           ..............

00001d16 <Dont_care_4518>:
    1d16:	c3 c3 c3 c3 ff ff ff ff ff ff ff ff c3 c3           ..............

00001d24 <logic_4518>:
    1d24:	42 c2 00 80 42 c2 00 80 06 86 08 88 02 82           B...B.........

00001d32 <IC_4512>:
    1d32:	a0 11 00 00 ff df 88 1d 64 1d 40 1d 00 12           ........d.@...

00001d40 <CLK_4512>:
	...

00001d64 <Dont_care_4512>:
    1d64:	ff ff ff ff ff ff ff ff ff ff ff ff ff ff ff ff     ................
    1d74:	ff ff ff ff ff ff ff ff ff ff ff ff ff ff ff ff     ................
    1d84:	ff ff ff ff                                         ....

00001d88 <logic_4512>:
    1d88:	7e 81 01 a0 7d 85 02 a4 7b 89 04 a8 77 8d 08 ac     ~...}...{...w...
    1d98:	6f 91 10 b0 5f 95 20 e4 3f 99 40 b8 7f 9c 00 bd     o..._. .?.@.....
    1da8:	00 9f 7f fc                                         ....

00001dac <IC_4511>:
    1dac:	9f 11 00 00 ff 80 ce 1d c4 1d ba 1d 00 05           ..............

00001dba <CLK_4511>:
	...

00001dc4 <Dont_care_4511>:
    1dc4:	ff ff ff ff ff ff ff ff ff ff                       ..........

00001dce <logic_4511>:
    1dce:	08 ff 4c 8c 4e f6 0c df 04 80                       ..L.N.....

00001dd8 <IC_4510>:
    1dd8:	9e 11 00 00 9d db fa 1d f0 1d e6 1d 00 05           ..............

00001de6 <CLK_4510>:
    1de6:	00 40 00 40 00 40 00 40 00 40                       .@.@.@.@.@

00001df0 <Dont_care_4510>:
    1df0:	ff ff ff ff ff ff ff ff ff ff                       ..........

00001dfa <logic_4510>:
    1dfa:	69 b2 40 a6 60 a6 40 a4 60 a0                       i.@.`.@.`.

00001e04 <IC_4503>:
    1e04:	97 11 00 00 ab ea 22 1e 1a 1e 12 1e 00 04           ......".......

00001e12 <CLK_4503>:
	...

00001e1a <Dont_care_4503>:
    1e1a:	ff ff ff ff ff ff ff ff                             ........

00001e22 <logic_4503>:
    1e22:	5d b3 77 8d 18 df 66 f4                             ].w...f.

00001e2a <IC_4098>:
    1e2a:	02 10 00 00 9f fc 64 1e 4e 1e 38 1e 00 0b           ......d.N.8...

00001e38 <CLK_4098>:
	...

00001e4e <Dont_care_4098>:
    1e4e:	ff ff ff ff 9f fc 9f fc ff ff ff ff ff ff ff ff     ................
    1e5e:	ff ff ff ff ff ff                                   ......

00001e64 <logic_4098>:
    1e64:	42 a1 56 b5 1e bc 1e bc 3e be 5c 9d 56 b5 5e bd     B.V.....>.\.V.^.
    1e74:	2e ba 4c 99 5e bd                                   ..L.^.

00001e7a <IC_4094>:
    1e7a:	fe 0f 00 00 85 c0 c0 1e a4 1e 88 1e 00 0e           ..............

00001e88 <CLK_4094>:
    1e88:	00 00 04 00 04 00 04 00 04 00 04 00 04 00 04 00     ................
    1e98:	04 00 04 00 04 00 04 00 00 00 00 00                 ............

00001ea4 <Dont_care_4094>:
    1ea4:	85 c0 8f c0 9f c0 bf c0 ff c0 ff e0 ff f0 ff f8     ................
    1eb4:	ff fc ff fd ff fd ff fd ff fd ff fd                 ............

00001ec0 <logic_4094>:
    1ec0:	01 c0 0b c0 11 c0 2b c0 51 c0 2b e0 51 d0 2b e8     ......+.Q.+.Q.+.
    1ed0:	51 d4 2b e8 51 d5 52 d4 2b e8 79 bc                 Q.+.Q.R.+.y.

00001edc <IC_4093>:
    1edc:	fd 0f 00 00 f3 39 fa 1e f2 1e ea 1e 00 04           .....9........

00001eea <CLK_4093>:
	...

00001ef2 <Dont_care_4093>:
    1ef2:	ff 3f ff 3f ff 3f ff 3f                             .?.?.?.?

00001efa <logic_4093>:
    1efa:	0c a6 9d ae 2e b7 b3 b9                             ........

00001f02 <IC_4082>:
    1f02:	f2 0f 00 00 fe 2f 3c 1f 26 1f 10 1f 00 0b           ...../<.&.....

00001f10 <CLK_4082>:
	...

00001f26 <Dont_care_4082>:
    1f26:	ff 3f ff 3f ff 3f ff 3f ff 3f ff 3f ff 3f ff 3f     .?.?.?.?.?.?.?.?
    1f36:	ff 3f ff 3f ff 3f                                   .?.?.?

00001f3c <logic_4082>:
    1f3c:	00 a0 02 a1 04 a2 06 a3 08 a4 0a a5 0c a6 0e a7     ................
    1f4c:	90 ae 12 a9 1f bf                                   ......

00001f52 <IC_4081>:
    1f52:	f1 0f 00 00 f3 39 70 1f 68 1f 60 1f 00 04           .....9p.h.`...

00001f60 <CLK_4081>:
	...

00001f68 <Dont_care_4081>:
    1f68:	ff 3f ff 3f ff 3f ff 3f                             .?.?.?.?

00001f70 <logic_4081>:
    1f70:	b8 a3 91 a8 22 b1 07 bc                             ...."...

00001f78 <IC_4078>:
    1f78:	ee 0f 00 00 ff 2f ae 1f 9a 1f 86 1f 00 0a           ...../........

00001f86 <CLK_4078>:
	...

00001f9a <Dont_care_4078>:
    1f9a:	ff 3f ff 3f ff 3f ff 3f ff 3f ff 3f ff 3f ff 3f     .?.?.?.?.?.?.?.?
    1faa:	ff 3f ff 3f                                         .?.?

00001fae <logic_4078>:
    1fae:	1f af 0a a5 14 aa 18 ac 06 a3 00 af 00 b0 1f a7     ................
    1fbe:	16 af 1c ae                                         ....

00001fc2 <IC_4077>:
    1fc2:	ed 0f 00 00 f3 39 e0 1f d8 1f d0 1f 00 04           .....9........

00001fd0 <CLK_4077>:
	...

00001fd8 <Dont_care_4077>:
    1fd8:	ff 3f ff 3f ff 3f ff 3f                             .?.?.?.?

00001fe0 <logic_4077>:
    1fe0:	0c a6 91 a8 22 b1 bf bf                             ...."...

00001fe8 <IC_4076>:
    1fe8:	ec 0f 00 00 c3 ff 02 20 fc 1f f6 1f 00 03           ....... ......

00001ff6 <CLK_4076>:
    1ff6:	40 00 40 00 40 00                                   @.@.@.

00001ffc <Dont_care_4076>:
    1ffc:	ff ff ff ff ff ff                                   ......

00002002 <logic_4076>:
    2002:	3c bc 14 a8 28 94                                   <...(.

00002008 <IC_4075>:
    2008:	eb 0f 00 00 df 3c 36 20 26 20 16 20 00 08           .....<6 & . ..

00002016 <CLK_4075>:
	...

00002026 <Dont_care_4075>:
    2026:	ff 3f ff 3f ff 3f ff 3f ff 3f ff 3f ff 3f ff 3f     .?.?.?.?.?.?.?.?

00002036 <logic_4075>:
    2036:	00 e0 ac e7 29 eb ad ef 33 f3 b6 f7 3b fb bf e7     ....)...3...;...

00002046 <IC_4073>:
    2046:	e9 0f 00 00 df 3c 74 20 64 20 54 20 00 08           .....<t d T ..

00002054 <CLK_4073>:
	...

00002064 <Dont_care_4073>:
    2064:	ff 3f ff 3f ff 3f ff 3f ff 3f ff 3f ff 3f ff 3f     .?.?.?.?.?.?.?.?

00002074 <logic_4073>:
    2074:	00 e0 84 e4 09 e8 8d ec 13 f0 96 f4 13 f8 bf ff     ................

00002084 <IC_4072>:
    2084:	e8 0f 00 00 fe 2f be 20 a8 20 92 20 00 0b           ...../. . . ..

00002092 <CLK_4072>:
	...

000020a8 <Dont_care_4072>:
    20a8:	ff 3f ff 3f ff 3f ff 3f ff 3f ff 3f ff 3f ff 3f     .?.?.?.?.?.?.?.?
    20b8:	ff 3f ff 3f ff 3f                                   .?.?.?

000020be <logic_4072>:
    20be:	00 e0 03 f1 05 f2 07 f3 09 f4 0b f5 0d f6 0f f7     ................
    20ce:	11 f8 13 f9 1f ff                                   ......

000020d4 <IC_4071>:
    20d4:	e7 0f 00 00 f3 39 f2 20 ea 20 e2 20 00 04           .....9. . . ..

000020e2 <CLK_4071>:
	...

000020ea <Dont_care_4071>:
    20ea:	ff 3f ff 3f ff 3f ff 3f                             .?.?.?.?

000020f2 <logic_4071>:
    20f2:	b8 e3 9d ee 2e f7 07 fc                             ........

000020fa <IC_4070>:
    20fa:	e6 0f 00 00 f3 39 18 21 10 21 08 21 00 04           .....9.!.!.!..

00002108 <CLK_4070>:
	...

00002110 <Dont_care_4070>:
    2110:	ff 3f ff 3f ff 3f ff 3f                             .?.?.?.?

00002118 <logic_4070>:
    2118:	00 e0 9d ee 2e f7 b3 f9                             ........

00002120 <IC_4069>:
    2120:	e5 0f 00 00 55 35 36 21 32 21 2e 21 00 02           ....U56!2!.!..

0000212e <CLK_4069>:
    212e:	00 00 00 00                                         ....

00002132 <Dont_care_4069>:
    2132:	ff 3f ff 3f                                         .?.?

00002136 <logic_4069>:
    2136:	aa ea 15 f5                                         ....

0000213a <IC_4068>:
    213a:	e4 0f 00 00 ff 2f 70 21 5c 21 48 21 00 0a           ...../p!\!H!..

00002148 <CLK_4068>:
	...

0000215c <Dont_care_4068>:
    215c:	ff 3f ff 3f ff 3f ff 3f ff 3f ff 3f ff 3f ff 3f     .?.?.?.?.?.?.?.?
    216c:	ff 3f ff 3f                                         .?.?

00002170 <logic_4068>:
    2170:	1e ef 0a f5 14 fa 18 fc 06 f3 00 ff 00 f0 1e f7     ................
    2180:	16 ff 1c fe                                         ....

00002184 <IC_4066>:
    2184:	e2 0f 00 00 f9 3c a2 21 9a 21 92 21 00 04           .....<.!.!.!..

00002192 <CLK_4066>:
	...

0000219a <Dont_care_4066>:
    219a:	ff 3f ff 3f ff 3f ff 3f                             .?.?.?.?

000021a2 <logic_4066>:
    21a2:	06 e3 8f e7 30 f8 bf ff                             ....0...

000021aa <IC_4053>:
    21aa:	d5 0f 00 00 f7 9f cc 21 c2 21 b8 21 00 05           .......!.!.!..

000021b8 <CLK_4053>:
	...

000021c2 <Dont_care_4053>:
    21c2:	f7 9f ff ff ff ff ff ff ff ff                       ..........

000021cc <logic_4053>:
    21cc:	12 88 1a e8 0e e9 19 ea 1a f4                       ..........

000021d6 <IC_4051>:
    21d6:	d3 0f 00 00 fb ff 28 22 06 22 e4 21 00 11           ......(".".!..

000021e4 <CLK_4051>:
	...

00002206 <Dont_care_4051>:
    2206:	ff ff ff ff ff ff ff ff ff ff ff ff ff ff ff ff     ................
    2216:	ff ff ff ff ff ff ff ff ff ff ff ff ff ff ff ff     ................
    2226:	ff ff                                               ..

00002228 <logic_4051>:
    2228:	1b e8 1b dc 1b ba 1b f6 1a f9 0b fd 19 fb 13 ff     ................
    2238:	04 90 04 a4 04 c2 04 9e 05 81 14 85 06 83 0c 87     ................
    2248:	3f e8                                               ?.

0000224a <IC_4049>:
    224a:	d1 0f 00 00 d5 b5 60 22 5c 22 58 22 00 02           ......`"\"X"..

00002258 <CLK_4049>:
    2258:	00 00 00 00                                         ....

0000225c <Dont_care_4049>:
    225c:	ff ff ff ff                                         ....

00002260 <logic_4049>:
    2260:	4d b6 33 a9                                         M.3.

00002264 <IC_4048>:
    2264:	d0 0f 00 00 fe ff 82 22 7a 22 72 22 00 04           ......."z"r"..

00002272 <CLK_4048>:
	...

0000227a <Dont_care_4048>:
    227a:	ff ff ff ff ff ff ff ff                             ........

00002282 <logic_4048>:
    2282:	03 80 16 94 17 95 02 81                             ........

0000228a <IC_4044>:
    228a:	cc 0f 00 00 fc ec a4 22 9e 22 98 22 00 03           ......."."."..

00002298 <CLK_4044>:
    2298:	00 00 00 00 00 00                                   ......

0000229e <Dont_care_4044>:
    229e:	fd ff fd ff fd ff                                   ......

000022a4 <logic_4044>:
    22a4:	39 bb 7d ff 54 c4                                   9.}.T.

000022aa <IC_4043>:
    22aa:	cb 0f 00 00 fc fc c8 22 c0 22 b8 22 00 04           ......."."."..

000022b8 <CLK_4043>:
	...

000022c0 <Dont_care_4043>:
    22c0:	ff ff ff ff ff ff ff ff                             ........

000022c8 <logic_4043>:
    22c8:	54 c4 3b ab 13 83 7f ff                             T.;.....

000022d0 <IC_4042>:
    22d0:	ca 0f 00 00 f8 b0 ea 22 e4 22 de 22 00 03           ......."."."..

000022de <CLK_4042>:
    22de:	00 00 00 00 00 00                                   ......

000022e4 <Dont_care_4042>:
    22e4:	ff ff ff ff ff ff                                   ......

000022ea <logic_4042>:
    22ea:	4b b6 5b b6 34 c9                                   K.[.4.

000022f0 <IC_4041>:
    22f0:	c9 0f 00 00 64 32 06 23 02 23 fe 22 00 02           ....d2.#.#."..

000022fe <CLK_4041>:
    22fe:	00 00 00 00                                         ....

00002302 <Dont_care_4041>:
    2302:	ff 3f ff 3f                                         .?.?

00002306 <logic_4041>:
    2306:	ad b6 12 a9                                         ....

0000230a <IC_4040>:
    230a:	c8 0f 00 00 80 86 54 23 36 23 18 23 00 0f           ......T#6#.#..

00002318 <CLK_4040>:
    2318:	00 02 00 02 00 02 00 02 00 02 00 02 00 02 00 02     ................
    2328:	00 02 00 02 00 02 00 02 00 02 00 02 00 02           ..............

00002336 <Dont_care_4040>:
    2336:	80 86 ff ff ff ff ff ff ff ff ff ff ff ff ff ff     ................
    2346:	ff ff ff ff ff ff ff ff ff ff ff ff ff ff           ..............

00002354 <logic_4040>:
    2354:	00 84 00 81 40 80 40 81 20 80 20 81 60 80 60 81     ....@.@. . .`.`.
    2364:	10 80 10 81 50 80 50 81 30 80 30 81 70 80           ....P.P.0.0.p.

00002372 <IC_4031>:
    2372:	bf 0f 00 00 83 c2 90 23 88 23 80 23 00 04           .......#.#.#..

00002380 <CLK_4031>:
    2380:	02 00 02 00 02 00 02 00                             ........

00002388 <Dont_care_4031>:
    2388:	e3 c2 e3 c2 e3 c2 e3 c2                             ........

00002390 <logic_4031>:
    2390:	20 c0 40 80 21 82 40 82                              .@.!.@.

00002398 <IC_4030>:
    2398:	be 0f 00 00 f3 39 b6 23 ae 23 a6 23 00 04           .....9.#.#.#..

000023a6 <CLK_4030>:
	...

000023ae <Dont_care_4030>:
    23ae:	ff 3f ff 3f ff 3f ff 3f                             .?.?.?.?

000023b6 <logic_4030>:
    23b6:	9d ae 2e b7 00 a0 b3 b9                             ........

000023be <IC_4029>:
    23be:	bd 0f 00 00 9d db 24 24 f8 23 cc 23 00 16           ......$$.#.#..

000023cc <CLK_4029>:
    23cc:	00 40 00 40 00 40 00 40 00 40 00 40 00 40 00 40     .@.@.@.@.@.@.@.@
    23dc:	00 40 00 40 00 40 00 40 00 40 00 40 00 40 00 40     .@.@.@.@.@.@.@.@
    23ec:	00 40 00 40 00 40 00 40 00 40 01 40                 .@.@.@.@.@.@

000023f8 <Dont_care_4029>:
    23f8:	ff ff ff ff ff ff ff ff ff ff ff ff ff ff ff ff     ................
    2408:	ff ff ff ff ff ff ff ff ff ff ff ff ff ff ff ff     ................
    2418:	ff ff ff ff ff ff ff ff ff ff ff ff                 ............

00002424 <logic_4029>:
    2424:	41 82 60 82 40 86 60 86 40 a2 60 a2 40 a6 60 a6     A.`.@.`.@.`.@.`.
    2434:	42 82 22 80 42 80 60 a4 40 a4 60 a0 40 a0 60 84     B.".B.`.@.`.@.`.
    2444:	40 84 60 80 50 80 00 80 62 80 40 be                 @.`.P...b.@.

00002450 <IC_4028>:
    2450:	bc 0f 00 00 80 9e 86 24 72 24 5e 24 00 0a           .......$r$^$..

0000245e <CLK_4028>:
	...

00002472 <Dont_care_4028>:
    2472:	ff ff ff ff ff ff ff ff ff ff ff ff ff ff ff ff     ................
    2482:	ff ff ff ff                                         ....

00002486 <logic_4028>:
    2486:	04 80 00 a2 04 80 00 d2 01 88 20 8a 40 98 08 9a     .......... .@...
    2496:	00 85 10 86                                         ....

0000249a <IC_4027>:
    249a:	bb 0f 00 00 fc 9f d0 24 bc 24 a8 24 00 0a           .......$.$.$..

000024a8 <CLK_4027>:
    24a8:	00 00 00 00 04 00 04 00 04 00 04 00 00 10 00 10     ................
    24b8:	00 10 00 10                                         ....

000024bc <Dont_care_4027>:
    24bc:	ff ff ff ff ff ff ff ff ff ff ff ff ff ff ff ff     ................
    24cc:	ff ff ff ff                                         ....

000024d0 <logic_4027>:
    24d0:	51 c5 2a aa 21 a0 12 a0 31 a0 32 a0 02 c2 02 a4     Q.*.!...1.2.....
    24e0:	02 c6 02 a6                                         ....

000024e4 <IC_4025>:
    24e4:	b9 0f 00 00 df 3c 12 25 02 25 f2 24 00 08           .....<.%.%.$..

000024f2 <CLK_4025>:
	...

00002502 <Dont_care_4025>:
    2502:	ff 3f ff 3f ff 3f ff 3f ff 3f ff 3f ff 3f ff 3f     .?.?.?.?.?.?.?.?

00002512 <logic_4025>:
    2512:	20 a3 84 a4 09 a8 8d ac 12 b0 96 b4 1b b8 9f bc      ...............

00002522 <IC_4024>:
    2522:	b8 0f 00 00 43 20 68 25 4c 25 30 25 00 0e           ....C h%L%0%..

00002530 <CLK_4024>:
    2530:	01 00 01 00 01 00 01 00 01 00 01 00 01 00 01 00     ................
    2540:	01 00 01 00 01 00 01 00 01 00 01 00                 ............

0000254c <Dont_care_4024>:
    254c:	43 20 7f 2d 7f 2d 7f 2d 7f 2d 7f 2d 7f 2d 7f 2d     C .-.-.-.-.-.-.-
    255c:	7f 2d 7f 2d 7f 2d 7f 2d 7f 2d 7f 2d                 .-.-.-.-.-.-

00002568 <logic_4024>:
    2568:	02 a0 00 a8 00 a4 00 ac 00 a1 00 a9 00 a5 00 ad     ................
    2578:	20 a0 20 a8 20 a4 20 ac 20 a1 02 a0                  . . . . ...

00002584 <IC_4023>:
    2584:	b7 0f 00 00 df 3c b2 25 a2 25 92 25 00 08           .....<.%.%.%..

00002592 <CLK_4023>:
	...

000025a2 <Dont_care_4023>:
    25a2:	ff 3f ff 3f ff 3f ff 3f ff 3f ff 3f ff 3f ff 3f     .?.?.?.?.?.?.?.?

000025b2 <logic_4023>:
    25b2:	20 a3 a4 a7 29 ab ad af 32 b3 b6 b7 3b bb 9f bc      ...)...2...;...

000025c2 <IC_4022>:
    25c2:	b6 0f 00 00 80 f0 f8 25 e4 25 d0 25 00 0a           .......%.%.%..

000025d0 <CLK_4022>:
    25d0:	00 20 00 20 00 20 00 20 00 20 00 20 00 20 00 20     . . . . . . . . 
    25e0:	00 20 00 20                                         . . 

000025e4 <Dont_care_4022>:
    25e4:	df fe df fe df fe df fe df fe df fe df fe df fe     ................
    25f4:	df fe df fe                                         ....

000025f8 <logic_4022>:
    25f8:	02 c8 01 88 04 88 40 88 00 84 08 80 10 80 00 82     ......@.........
    2608:	02 88 02 98                                         ....

0000260c <IC_4020>:
    260c:	b4 0f 00 00 80 86 62 26 3e 26 1a 26 00 12           ......b&>&.&..

0000261a <CLK_4020>:
    261a:	00 00 00 00 00 02 00 02 00 02 00 02 00 02 00 02     ................
    262a:	00 02 00 02 00 02 00 02 00 02 00 02 00 02 00 02     ................
    263a:	00 02 00 02                                         ....

0000263e <Dont_care_4020>:
    263e:	ff ff ff ff ff ff ff ff ff ff ff ff ff ff ff ff     ................
    264e:	ff ff ff ff ff ff ff ff ff ff ff ff ff ff ff ff     ................
    265e:	ff ff ff ff                                         ....

00002662 <logic_4020>:
    2662:	00 84 00 80 00 81 00 80 00 81 00 80 00 81 00 80     ................
    2672:	00 81 40 80 40 81 40 80 40 81 40 80 40 81 40 80     ..@.@.@.@.@.@.@.
    2682:	40 81 10 80                                         @...

00002686 <IC_40193>:
    2686:	01 9d 00 00 99 e7 cc 26 b0 26 94 26 00 0e           .......&.&.&..

00002694 <CLK_40193>:
	...

000026b0 <Dont_care_40193>:
    26b0:	99 ff ff ff ff ff ff ff ff ff ff ff ff ff ff ff     ................
    26c0:	ff ff ff ff ff ff ff ff ff ff ff ff                 ............

000026cc <logic_40193>:
    26cc:	18 ff 7c db 6c 9c 7a 9c 6a 9c 7e 9c 6e 94 18 9c     ..|.l.z.j.~.n...
    26dc:	08 9c 1c 9c 14 9c 18 9c 10 8c 7e 9c                 ..........~.

000026e8 <IC_40192>:
    26e8:	00 9d 00 00 99 e7 2e 27 12 27 f6 26 00 0e           .......'.'.&..

000026f6 <CLK_40192>:
	...

00002712 <Dont_care_40192>:
    2712:	99 ff ff ff ff ff ff ff ff ff ff ff ff ff ff ff     ................
    2722:	ff ff ff ff ff ff ff ff ff ff ff ff                 ............

0000272e <logic_40192>:
    272e:	19 fe 3f da 2e 9c 58 9c 48 9c 5c 9c 4c 94 18 9c     ..?...X.H.\.L...
    273e:	08 9c 1c 9c 14 9c 18 9c 10 8c 3c 9c                 ..........<.

0000274a <IC_4019>:
    274a:	b3 0f 00 00 ff e1 70 27 64 27 58 27 00 06           ......p'd'X'..

00002758 <CLK_4019>:
	...

00002764 <Dont_care_4019>:
    2764:	ff ff ff ff ff ff ff ff ff ff ff ff                 ............

00002770 <logic_4019>:
    2770:	7f ff 7f fe 7f c0 00 f1 55 8f 55 be                 ........U.U.

0000277c <IC_4018>:
    277c:	b2 0f 00 00 c7 eb b2 27 9e 27 8a 27 00 0a           .......'.'.'..

0000278a <CLK_4018>:
    278a:	00 20 00 20 00 20 00 20 00 20 00 20 00 20 00 20     . . . . . . . . 
    279a:	00 20 00 20                                         . . 

0000279e <Dont_care_4018>:
    279e:	ff ff ff ff ff ff ff ff ff ff ff ff ff ff ff ff     ................
    27ae:	ff ff ff ff                                         ....

000027b2 <logic_4018>:
    27b2:	39 dd 29 9d 21 9d 01 9d 01 99 00 89 38 8b 38 84     9.).!.......8.8.
    27c2:	39 94 29 94                                         9.).

000027c6 <IC_40175>:
    27c6:	ef 9c 00 00 99 99 e4 27 dc 27 d4 27 00 04           .......'.'.'..

000027d4 <CLK_40175>:
    27d4:	00 01 00 01 00 01 00 01                             ........

000027dc <Dont_care_40175>:
    27dc:	ff ff ff ff ff ff ff ff                             ........

000027e4 <logic_40175>:
    27e4:	5b da 25 a4 24 a4 3c bc                             [.%.$.<.

000027ec <IC_40174>:
    27ec:	ee 9c 00 00 ad b5 0a 28 02 28 fa 27 00 04           .......(.(.'..

000027fa <CLK_40174>:
    27fa:	00 01 00 01 00 01 00 01                             ........

00002802 <Dont_care_40174>:
    2802:	ff ff ff ff ff ff ff ff                             ........

0000280a <logic_40174>:
    280a:	7f fe 01 80 00 80 2c b4                             ......,.

00002812 <IC_4017>:
    2812:	b1 0f 00 00 80 f0 50 28 38 28 20 28 00 0c           ......P(8( (..

00002820 <CLK_4017>:
    2820:	00 20 00 20 00 20 00 20 00 20 00 20 00 20 00 20     . . . . . . . . 
    2830:	00 20 00 20 00 20 00 20                             . . . . 

00002838 <Dont_care_4017>:
    2838:	ff ff ff ff ff ff ff ff ff ff ff ff ff ff ff ff     ................
    2848:	ff ff ff ff ff ff ff ff                             ........

00002850 <logic_4017>:
    2850:	04 c8 02 88 08 88 40 88 00 8a 01 80 10 80 20 80     ......@....... .
    2860:	00 81 00 84 04 88 04 98                             ........

00002868 <IC_40162>:
    2868:	e2 9c 00 00 ff 83 aa 28 90 28 76 28 00 0d           .......(.(v(..

00002876 <CLK_40162>:
    2876:	02 00 02 00 00 00 02 00 02 00 02 00 02 00 02 00     ................
	...
    288e:	02 00                                               ..

00002890 <Dont_care_40162>:
    2890:	ff 83 ff ff ff ff ff ff ff ff ff ff ff ff ff ff     ................
    28a0:	ff ff ff ff ff ff ff ff ff 83                       ..........

000028aa <logic_40162>:
    28aa:	1c 81 1d b8 41 bb 41 87 41 e7 41 83 41 a3 41 93     ....A.A.A.A.A.A.
    28ba:	43 b3 42 b3 40 b3 42 83 41 83                       C.B.@.B.A.

000028c4 <IC_40161>:
    28c4:	e1 9c 00 00 ff 83 02 29 ea 28 d2 28 00 0c           .......).(.(..

000028d2 <CLK_40161>:
    28d2:	02 00 02 00 02 00 00 00 02 00 02 00 02 00 02 00     ................
    28e2:	00 00 00 00 00 00 02 00                             ........

000028ea <Dont_care_40161>:
    28ea:	ff 83 ff ff ff ff ff ff ff ff ff ff ff ff ff ff     ................
    28fa:	ff ff ff ff ff ff ff 83                             ........

00002902 <logic_40161>:
    2902:	34 81 34 83 35 ac 41 af 41 9f 41 ff 41 83 41 a3     4.4.5.A.A.A.A.A.
    2912:	43 93 41 93 40 83 41 83                             C.A.@.A.

0000291a <IC_4016>:
    291a:	b0 0f 00 00 f9 3c 38 29 30 29 28 29 00 04           .....<8)0)()..

00002928 <CLK_4016>:
	...

00002930 <Dont_care_4016>:
    2930:	ff 3f ff 3f ff 3f ff 3f                             .?.?.?.?

00002938 <logic_4016>:
    2938:	06 a3 8f a7 30 b8 bf bf                             ....0...

00002940 <IC_4015>:
    2940:	af 0f 00 00 e1 e1 62 29 58 29 4e 29 00 05           ......b)X)N)..

0000294e <CLK_4015>:
    294e:	01 01 01 01 01 01 01 01 01 01                       ..........

00002958 <Dont_care_4015>:
    2958:	ff ff ff ff ff ff ff ff ff ff                       ..........

00002962 <logic_4015>:
    2962:	20 a0 50 d0 58 d8 5c dc 0e 8e                        .P.X.\...

0000296c <IC_4013>:
    296c:	ad 0f 00 00 fc 27 8a 29 82 29 7a 29 00 04           .....'.).)z)..

0000297a <CLK_4013>:
    297a:	04 04 04 04 04 04 04 04                             ........

00002982 <Dont_care_4013>:
    2982:	ff 3f ff 3f ff 3f ff 3f                             .?.?.?.?

0000298a <logic_4013>:
    298a:	0a aa a1 b0 02 a8 11 b1                             ........

00002992 <IC_4012>:
    2992:	ac 0f 00 00 5e 2f b0 29 a8 29 a0 29 00 04           ....^/.).).)..

000029a0 <CLK_4012>:
	...

000029a8 <Dont_care_4012>:
    29a8:	5f 3f 5f 3f 5f 3f 5f 3f                             _?_?_?_?

000029b0 <logic_4012>:
    29b0:	01 b0 0b b5 15 ba 1e af                             ........

000029b8 <IC_4011>:
    29b8:	ab 0f 00 00 f3 39 d6 29 ce 29 c6 29 00 04           .....9.).).)..

000029c6 <CLK_4011>:
	...

000029ce <Dont_care_4011>:
    29ce:	ff 3f ff 3f ff 3f ff 3f                             .?.?.?.?

000029d6 <logic_4011>:
    29d6:	b4 a5 9d ae 2e b7 0b ba                             ........

000029de <IC_40106>:
    29de:	aa 9c 00 00 55 35 f4 29 f0 29 ec 29 00 02           ....U5.).).)..

000029ec <CLK_40106>:
    29ec:	00 00 00 00                                         ....

000029f0 <Dont_care_40106>:
    29f0:	ff 3f ff 3f                                         .?.?

000029f4 <logic_40106>:
    29f4:	aa aa 15 b5                                         ....

000029f8 <IC_4010>:
    29f8:	aa 0f 00 00 d5 a5 0e 2a 0a 2a 06 2a 00 02           .......*.*.*..

00002a06 <CLK_4010>:
    2a06:	00 00 00 00                                         ....

00002a0a <Dont_care_4010>:
    2a0a:	ff ef ff ef                                         ....

00002a0e <logic_4010>:
    2a0e:	7f ef 01 80                                         ....

00002a12 <IC_4009>:
    2a12:	a9 0f 00 00 d5 a5 28 2a 24 2a 20 2a 00 02           ......(*$* *..

00002a20 <CLK_4009>:
    2a20:	00 00 00 00                                         ....

00002a24 <Dont_care_4009>:
    2a24:	ff ef ff ef                                         ....

00002a28 <logic_4009>:
    2a28:	2b ca 55 a5                                         +.U.

00002a2c <IC_4002>:
    2a2c:	a2 0f 00 00 fe 2f 62 2a 4e 2a 3a 2a 00 0a           ...../b*N*:*..

00002a3a <CLK_4002>:
	...

00002a4e <Dont_care_4002>:
    2a4e:	ff 3f ff 3f ff 3f ff 3f ff 3f ff 3f ff 3f ff 3f     .?.?.?.?.?.?.?.?
    2a5e:	ff 3f ff 3f                                         .?.?

00002a62 <logic_4002>:
    2a62:	10 23 10 21 10 2f 18 2c 06 2f 04 22 1e 2f 01 30     .#.!./.,./."./.0
    2a72:	0a 25 14 2a                                         .%.*

00002a76 <IC_4001>:
    2a76:	a1 0f 00 00 f3 39 94 2a 8c 2a 84 2a 00 04           .....9.*.*.*..

00002a84 <CLK_4001>:
	...

00002a8c <Dont_care_4001>:
    2a8c:	ff 3f ff 3f ff 3f ff 3f                             .?.?.?.?

00002a94 <logic_4001>:
    2a94:	0c 26 22 31 91 28 b3 39                             .&"1.(.9

00002a9c <IC_4000>:
    2a9c:	a0 0f 00 00 df 3c ce 2a bc 2a aa 2a 00 09           .....<.*.*.*..

00002aaa <CLK_4000>:
	...

00002abc <Dont_care_4000>:
    2abc:	ff 3f ff 3f ff 3f ff 3f ff 3f ff 3f ff 3f ff 3f     .?.?.?.?.?.?.?.?
    2acc:	ff 3f                                               .?

00002ace <logic_4000>:
    2ace:	a0 22 20 23 10 25 08 29 18 2d 04 31 14 35 0c 39     ." #.%.).-.1.5.9
    2ade:	1c 3d                                               .=

00002ae0 <__ctors_end>:
    2ae0:	11 24       	eor	r1, r1
    2ae2:	1f be       	out	0x3f, r1	; 63
    2ae4:	cf e5       	ldi	r28, 0x5F	; 95
    2ae6:	d8 e0       	ldi	r29, 0x08	; 8
    2ae8:	de bf       	out	0x3e, r29	; 62
    2aea:	cd bf       	out	0x3d, r28	; 61

00002aec <__do_copy_data>:
    2aec:	11 e0       	ldi	r17, 0x01	; 1
    2aee:	a0 e6       	ldi	r26, 0x60	; 96
    2af0:	b0 e0       	ldi	r27, 0x00	; 0
    2af2:	e0 eb       	ldi	r30, 0xB0	; 176
    2af4:	f1 e3       	ldi	r31, 0x31	; 49
    2af6:	02 c0       	rjmp	.+4      	; 0x2afc <__do_copy_data+0x10>
    2af8:	05 90       	lpm	r0, Z+
    2afa:	0d 92       	st	X+, r0
    2afc:	ac 3f       	cpi	r26, 0xFC	; 252
    2afe:	b1 07       	cpc	r27, r17
    2b00:	d9 f7       	brne	.-10     	; 0x2af8 <__do_copy_data+0xc>

00002b02 <__do_clear_bss>:
    2b02:	22 e0       	ldi	r18, 0x02	; 2
    2b04:	ac ef       	ldi	r26, 0xFC	; 252
    2b06:	b1 e0       	ldi	r27, 0x01	; 1
    2b08:	01 c0       	rjmp	.+2      	; 0x2b0c <.do_clear_bss_start>

00002b0a <.do_clear_bss_loop>:
    2b0a:	1d 92       	st	X+, r1

00002b0c <.do_clear_bss_start>:
    2b0c:	a4 3d       	cpi	r26, 0xD4	; 212
    2b0e:	b2 07       	cpc	r27, r18
    2b10:	e1 f7       	brne	.-8      	; 0x2b0a <.do_clear_bss_loop>
    2b12:	0e 94 4d 17 	call	0x2e9a	; 0x2e9a <main>
    2b16:	0c 94 d6 18 	jmp	0x31ac	; 0x31ac <_exit>

00002b1a <__bad_interrupt>:
    2b1a:	0c 94 00 00 	jmp	0	; 0x0 <__vectors>

00002b1e <begin_function>:

void send_string(char *ch) {
	while (*ch) {
		send_char(*ch++);
	}
}
    2b1e:	81 e0       	ldi	r24, 0x01	; 1
    2b20:	80 93 fc 01 	sts	0x01FC, r24	; 0x8001fc <__data_end>
    2b24:	10 92 fd 01 	sts	0x01FD, r1	; 0x8001fd <test_flag>
    2b28:	95 b3       	in	r25, 0x15	; 21
    2b2a:	89 27       	eor	r24, r25
    2b2c:	85 bb       	out	0x15, r24	; 21
    2b2e:	08 95       	ret

00002b30 <apply_Direction>:
    2b30:	8a bb       	out	0x1a, r24	; 26
    2b32:	97 bb       	out	0x17, r25	; 23
    2b34:	08 95       	ret

00002b36 <apply_Logic>:
    2b36:	8b bb       	out	0x1b, r24	; 27
    2b38:	98 bb       	out	0x18, r25	; 24
    2b3a:	08 95       	ret

00002b3c <apply_clk>:
    2b3c:	2b b3       	in	r18, 0x1b	; 27
    2b3e:	28 2b       	or	r18, r24
    2b40:	2b bb       	out	0x1b, r18	; 27
    2b42:	28 b3       	in	r18, 0x18	; 24
    2b44:	29 2b       	or	r18, r25
    2b46:	28 bb       	out	0x18, r18	; 24
    2b48:	2d e0       	ldi	r18, 0x0D	; 13
    2b4a:	2a 95       	dec	r18
    2b4c:	f1 f7       	brne	.-4      	; 0x2b4a <apply_clk+0xe>
    2b4e:	00 00       	nop
    2b50:	2b b3       	in	r18, 0x1b	; 27
    2b52:	80 95       	com	r24
    2b54:	82 23       	and	r24, r18
    2b56:	8b bb       	out	0x1b, r24	; 27
    2b58:	88 b3       	in	r24, 0x18	; 24
    2b5a:	90 95       	com	r25
    2b5c:	98 23       	and	r25, r24
    2b5e:	98 bb       	out	0x18, r25	; 24
    2b60:	08 95       	ret

00002b62 <read_Logic>:
    2b62:	29 b3       	in	r18, 0x19	; 25
    2b64:	86 b3       	in	r24, 0x16	; 22
    2b66:	90 e0       	ldi	r25, 0x00	; 0
    2b68:	98 2f       	mov	r25, r24
    2b6a:	88 27       	eor	r24, r24
    2b6c:	82 2b       	or	r24, r18
    2b6e:	90 93 89 02 	sts	0x0289, r25	; 0x800289 <read_Logic_temp+0x1>
    2b72:	80 93 88 02 	sts	0x0288, r24	; 0x800288 <read_Logic_temp>
    2b76:	08 95       	ret

00002b78 <Test_IC>:
    2b78:	cf 92       	push	r12
    2b7a:	df 92       	push	r13
    2b7c:	ef 92       	push	r14
    2b7e:	ff 92       	push	r15
    2b80:	1f 93       	push	r17
    2b82:	cf 93       	push	r28
    2b84:	df 93       	push	r29
    2b86:	7c 01       	movw	r14, r24
    2b88:	fc 01       	movw	r30, r24
    2b8a:	84 81       	ldd	r24, Z+4	; 0x04
    2b8c:	95 81       	ldd	r25, Z+5	; 0x05
    2b8e:	0e 94 98 15 	call	0x2b30	; 0x2b30 <apply_Direction>
    2b92:	10 e0       	ldi	r17, 0x00	; 0
    2b94:	29 c0       	rjmp	.+82     	; 0x2be8 <Test_IC+0x70>
    2b96:	c1 2f       	mov	r28, r17
    2b98:	d0 e0       	ldi	r29, 0x00	; 0
    2b9a:	cc 0f       	add	r28, r28
    2b9c:	dd 1f       	adc	r29, r29
    2b9e:	ce 01       	movw	r24, r28
    2ba0:	84 5f       	subi	r24, 0xF4	; 244
    2ba2:	9d 4f       	sbci	r25, 0xFD	; 253
    2ba4:	6c 01       	movw	r12, r24
    2ba6:	fc 01       	movw	r30, r24
    2ba8:	80 81       	ld	r24, Z
    2baa:	91 81       	ldd	r25, Z+1	; 0x01
    2bac:	0e 94 9b 15 	call	0x2b36	; 0x2b36 <apply_Logic>
    2bb0:	fe 01       	movw	r30, r28
    2bb2:	e6 5b       	subi	r30, 0xB6	; 182
    2bb4:	fd 4f       	sbci	r31, 0xFD	; 253
    2bb6:	80 81       	ld	r24, Z
    2bb8:	91 81       	ldd	r25, Z+1	; 0x01
    2bba:	0e 94 9e 15 	call	0x2b3c	; 0x2b3c <apply_clk>
    2bbe:	0e 94 b1 15 	call	0x2b62	; 0x2b62 <read_Logic>
    2bc2:	c6 57       	subi	r28, 0x76	; 118
    2bc4:	dd 4f       	sbci	r29, 0xFD	; 253
    2bc6:	28 81       	ld	r18, Y
    2bc8:	39 81       	ldd	r19, Y+1	; 0x01
    2bca:	82 23       	and	r24, r18
    2bcc:	93 23       	and	r25, r19
    2bce:	f6 01       	movw	r30, r12
    2bd0:	20 81       	ld	r18, Z
    2bd2:	31 81       	ldd	r19, Z+1	; 0x01
    2bd4:	82 17       	cp	r24, r18
    2bd6:	93 07       	cpc	r25, r19
    2bd8:	31 f0       	breq	.+12     	; 0x2be6 <Test_IC+0x6e>
    2bda:	80 e0       	ldi	r24, 0x00	; 0
    2bdc:	90 e0       	ldi	r25, 0x00	; 0
    2bde:	0e 94 98 15 	call	0x2b30	; 0x2b30 <apply_Direction>
    2be2:	80 e0       	ldi	r24, 0x00	; 0
    2be4:	06 c0       	rjmp	.+12     	; 0x2bf2 <Test_IC+0x7a>
    2be6:	1f 5f       	subi	r17, 0xFF	; 255
    2be8:	f7 01       	movw	r30, r14
    2bea:	85 85       	ldd	r24, Z+13	; 0x0d
    2bec:	18 17       	cp	r17, r24
    2bee:	98 f2       	brcs	.-90     	; 0x2b96 <Test_IC+0x1e>
    2bf0:	81 e0       	ldi	r24, 0x01	; 1
    2bf2:	df 91       	pop	r29
    2bf4:	cf 91       	pop	r28
    2bf6:	1f 91       	pop	r17
    2bf8:	ff 90       	pop	r15
    2bfa:	ef 90       	pop	r14
    2bfc:	df 90       	pop	r13
    2bfe:	cf 90       	pop	r12
    2c00:	08 95       	ret

00002c02 <USART_Init>:
    2c02:	10 bc       	out	0x20, r1	; 32
    2c04:	83 e3       	ldi	r24, 0x33	; 51
    2c06:	89 b9       	out	0x09, r24	; 9
    2c08:	88 e0       	ldi	r24, 0x08	; 8
    2c0a:	8a b9       	out	0x0a, r24	; 10
    2c0c:	86 e8       	ldi	r24, 0x86	; 134
    2c0e:	80 bd       	out	0x20, r24	; 32
    2c10:	08 95       	ret

00002c12 <unsignedIntToStr>:


/* ======================================================== convert int to string ================================================ */ 
void unsignedIntToStr(uint32_t num, char *str) {
    2c12:	cf 92       	push	r12
    2c14:	df 92       	push	r13
    2c16:	ef 92       	push	r14
    2c18:	ff 92       	push	r15
    2c1a:	0f 93       	push	r16
    2c1c:	1f 93       	push	r17
    2c1e:	cf 93       	push	r28
    2c20:	df 93       	push	r29
    2c22:	ea 01       	movw	r28, r20
	uint32_t i = 0;

	// Handle 0 explicitly, otherwise empty string is printed
	if (num == 0) {
    2c24:	61 15       	cp	r22, r1
    2c26:	71 05       	cpc	r23, r1
    2c28:	81 05       	cpc	r24, r1
    2c2a:	91 05       	cpc	r25, r1
    2c2c:	d1 f4       	brne	.+52     	; 0x2c62 <unsignedIntToStr+0x50>
		str[i++] = '0';
    2c2e:	80 e3       	ldi	r24, 0x30	; 48
    2c30:	88 83       	st	Y, r24
		str[i] = '\0';
    2c32:	19 82       	std	Y+1, r1	; 0x01
		return;
    2c34:	39 c0       	rjmp	.+114    	; 0x2ca8 <unsignedIntToStr+0x96>
	}

	// Process individual digits
	while (num != 0) {
		str[i++] = (num % 10) + '0';  // Get the last digit and convert to character
    2c36:	8e 01       	movw	r16, r28
    2c38:	0c 0d       	add	r16, r12
    2c3a:	1d 1d       	adc	r17, r13
    2c3c:	2a e0       	ldi	r18, 0x0A	; 10
    2c3e:	30 e0       	ldi	r19, 0x00	; 0
    2c40:	40 e0       	ldi	r20, 0x00	; 0
    2c42:	50 e0       	ldi	r21, 0x00	; 0
    2c44:	0e 94 ab 18 	call	0x3156	; 0x3156 <__udivmodsi4>
    2c48:	60 5d       	subi	r22, 0xD0	; 208
    2c4a:	f8 01       	movw	r30, r16
    2c4c:	60 83       	st	Z, r22
		num = num / 10;  // Remove the last digit
    2c4e:	62 2f       	mov	r22, r18
    2c50:	73 2f       	mov	r23, r19
    2c52:	84 2f       	mov	r24, r20
    2c54:	95 2f       	mov	r25, r21
		return;
	}

	// Process individual digits
	while (num != 0) {
		str[i++] = (num % 10) + '0';  // Get the last digit and convert to character
    2c56:	ff ef       	ldi	r31, 0xFF	; 255
    2c58:	cf 1a       	sub	r12, r31
    2c5a:	df 0a       	sbc	r13, r31
    2c5c:	ef 0a       	sbc	r14, r31
    2c5e:	ff 0a       	sbc	r15, r31
    2c60:	03 c0       	rjmp	.+6      	; 0x2c68 <unsignedIntToStr+0x56>
    2c62:	c1 2c       	mov	r12, r1
    2c64:	d1 2c       	mov	r13, r1
    2c66:	76 01       	movw	r14, r12
		str[i] = '\0';
		return;
	}

	// Process individual digits
	while (num != 0) {
    2c68:	61 15       	cp	r22, r1
    2c6a:	71 05       	cpc	r23, r1
    2c6c:	81 05       	cpc	r24, r1
    2c6e:	91 05       	cpc	r25, r1
    2c70:	11 f7       	brne	.-60     	; 0x2c36 <unsignedIntToStr+0x24>
		str[i++] = (num % 10) + '0';  // Get the last digit and convert to character
		num = num / 10;  // Remove the last digit
	}

	// Null terminate the string
	str[i] = '\0';
    2c72:	fe 01       	movw	r30, r28
    2c74:	ec 0d       	add	r30, r12
    2c76:	fd 1d       	adc	r31, r13
    2c78:	10 82       	st	Z, r1

	// Reverse the string as digits are in reverse order
	int start = 0;
	int end = i - 1;
    2c7a:	21 e0       	ldi	r18, 0x01	; 1
    2c7c:	c2 1a       	sub	r12, r18
    2c7e:	d1 08       	sbc	r13, r1

	// Null terminate the string
	str[i] = '\0';

	// Reverse the string as digits are in reverse order
	int start = 0;
    2c80:	80 e0       	ldi	r24, 0x00	; 0
    2c82:	90 e0       	ldi	r25, 0x00	; 0
	int end = i - 1;
	while (start < end) {
    2c84:	0e c0       	rjmp	.+28     	; 0x2ca2 <unsignedIntToStr+0x90>
		char temp = str[start];
    2c86:	de 01       	movw	r26, r28
    2c88:	a8 0f       	add	r26, r24
    2c8a:	b9 1f       	adc	r27, r25
    2c8c:	2c 91       	ld	r18, X
		str[start] = str[end];
    2c8e:	fe 01       	movw	r30, r28
    2c90:	ec 0d       	add	r30, r12
    2c92:	fd 1d       	adc	r31, r13
    2c94:	30 81       	ld	r19, Z
    2c96:	3c 93       	st	X, r19
		str[end] = temp;
    2c98:	20 83       	st	Z, r18
		start++;
    2c9a:	01 96       	adiw	r24, 0x01	; 1
		end--;
    2c9c:	e1 e0       	ldi	r30, 0x01	; 1
    2c9e:	ce 1a       	sub	r12, r30
    2ca0:	d1 08       	sbc	r13, r1
	str[i] = '\0';

	// Reverse the string as digits are in reverse order
	int start = 0;
	int end = i - 1;
	while (start < end) {
    2ca2:	8c 15       	cp	r24, r12
    2ca4:	9d 05       	cpc	r25, r13
    2ca6:	7c f3       	brlt	.-34     	; 0x2c86 <unsignedIntToStr+0x74>
		str[start] = str[end];
		str[end] = temp;
		start++;
		end--;
	}
}
    2ca8:	df 91       	pop	r29
    2caa:	cf 91       	pop	r28
    2cac:	1f 91       	pop	r17
    2cae:	0f 91       	pop	r16
    2cb0:	ff 90       	pop	r15
    2cb2:	ef 90       	pop	r14
    2cb4:	df 90       	pop	r13
    2cb6:	cf 90       	pop	r12
    2cb8:	08 95       	ret

00002cba <clear_logic_array>:

/* ======================================================== Clear Logic Array ================================================ */
void clear_logic_array(void){
	for (int i = 0 ; i<size_logic_array ; i++)
    2cba:	80 e0       	ldi	r24, 0x00	; 0
    2cbc:	90 e0       	ldi	r25, 0x00	; 0
    2cbe:	08 c0       	rjmp	.+16     	; 0x2cd0 <clear_logic_array+0x16>
	{
		logic_array[i] =  0;
    2cc0:	fc 01       	movw	r30, r24
    2cc2:	ee 0f       	add	r30, r30
    2cc4:	ff 1f       	adc	r31, r31
    2cc6:	e4 5f       	subi	r30, 0xF4	; 244
    2cc8:	fd 4f       	sbci	r31, 0xFD	; 253
    2cca:	11 82       	std	Z+1, r1	; 0x01
    2ccc:	10 82       	st	Z, r1
	}
}

/* ======================================================== Clear Logic Array ================================================ */
void clear_logic_array(void){
	for (int i = 0 ; i<size_logic_array ; i++)
    2cce:	01 96       	adiw	r24, 0x01	; 1
    2cd0:	20 91 64 00 	lds	r18, 0x0064	; 0x800064 <size_logic_array>
    2cd4:	30 91 65 00 	lds	r19, 0x0065	; 0x800065 <size_logic_array+0x1>
    2cd8:	82 17       	cp	r24, r18
    2cda:	93 07       	cpc	r25, r19
    2cdc:	88 f3       	brcs	.-30     	; 0x2cc0 <clear_logic_array+0x6>
	{
		logic_array[i] =  0;
	}
}
    2cde:	08 95       	ret

00002ce0 <clear_dont_care_array>:

void clear_dont_care_array(void){
	for (int i = 0 ; i<size_logic_array ; i++)
    2ce0:	80 e0       	ldi	r24, 0x00	; 0
    2ce2:	90 e0       	ldi	r25, 0x00	; 0
    2ce4:	08 c0       	rjmp	.+16     	; 0x2cf6 <clear_dont_care_array+0x16>
	{
		dont_care[i] =  0;
    2ce6:	fc 01       	movw	r30, r24
    2ce8:	ee 0f       	add	r30, r30
    2cea:	ff 1f       	adc	r31, r31
    2cec:	e6 57       	subi	r30, 0x76	; 118
    2cee:	fd 4f       	sbci	r31, 0xFD	; 253
    2cf0:	11 82       	std	Z+1, r1	; 0x01
    2cf2:	10 82       	st	Z, r1
		logic_array[i] =  0;
	}
}

void clear_dont_care_array(void){
	for (int i = 0 ; i<size_logic_array ; i++)
    2cf4:	01 96       	adiw	r24, 0x01	; 1
    2cf6:	20 91 64 00 	lds	r18, 0x0064	; 0x800064 <size_logic_array>
    2cfa:	30 91 65 00 	lds	r19, 0x0065	; 0x800065 <size_logic_array+0x1>
    2cfe:	82 17       	cp	r24, r18
    2d00:	93 07       	cpc	r25, r19
    2d02:	88 f3       	brcs	.-30     	; 0x2ce6 <clear_dont_care_array+0x6>
	{
		dont_care[i] =  0;
	}
}
    2d04:	08 95       	ret

00002d06 <clear_clk_array>:

void clear_clk_array(void){
	for (int i = 0 ; i<size_logic_array ; i++)
    2d06:	80 e0       	ldi	r24, 0x00	; 0
    2d08:	90 e0       	ldi	r25, 0x00	; 0
    2d0a:	08 c0       	rjmp	.+16     	; 0x2d1c <clear_clk_array+0x16>
	{
		clk[i] =  0;
    2d0c:	fc 01       	movw	r30, r24
    2d0e:	ee 0f       	add	r30, r30
    2d10:	ff 1f       	adc	r31, r31
    2d12:	e6 5b       	subi	r30, 0xB6	; 182
    2d14:	fd 4f       	sbci	r31, 0xFD	; 253
    2d16:	11 82       	std	Z+1, r1	; 0x01
    2d18:	10 82       	st	Z, r1
		dont_care[i] =  0;
	}
}

void clear_clk_array(void){
	for (int i = 0 ; i<size_logic_array ; i++)
    2d1a:	01 96       	adiw	r24, 0x01	; 1
    2d1c:	20 91 64 00 	lds	r18, 0x0064	; 0x800064 <size_logic_array>
    2d20:	30 91 65 00 	lds	r19, 0x0065	; 0x800065 <size_logic_array+0x1>
    2d24:	82 17       	cp	r24, r18
    2d26:	93 07       	cpc	r25, r19
    2d28:	88 f3       	brcs	.-30     	; 0x2d0c <clear_clk_array+0x6>
	{
		clk[i] =  0;
	}
}
    2d2a:	08 95       	ret

00002d2c <LCD_Send_Command>:
	LCD_Send_Command(0x01); // Clear display
	_delay_ms(2);      // Clear command requires extra delay
}

void LCD_Send_Command(uint8_t cmd){
	PORTC &= ~(1 << RS);				//  command mode
    2d2c:	95 b3       	in	r25, 0x15	; 21
    2d2e:	9f 7e       	andi	r25, 0xEF	; 239
    2d30:	95 bb       	out	0x15, r25	; 21
	
	PORTC = (PORTC & 0xF0) | ((cmd >> 4) & 0x0F);
    2d32:	95 b3       	in	r25, 0x15	; 21
    2d34:	90 7f       	andi	r25, 0xF0	; 240
    2d36:	28 2f       	mov	r18, r24
    2d38:	22 95       	swap	r18
    2d3a:	2f 70       	andi	r18, 0x0F	; 15
    2d3c:	92 2b       	or	r25, r18
    2d3e:	95 bb       	out	0x15, r25	; 21
	
	PORTC |= (1 << E);   // Enable pulse
    2d40:	95 b3       	in	r25, 0x15	; 21
    2d42:	90 62       	ori	r25, 0x20	; 32
    2d44:	95 bb       	out	0x15, r25	; 21
	#else
		//round up by default
		__ticks_dc = (uint32_t)(ceil(fabs(__tmp)));
	#endif

	__builtin_avr_delay_cycles(__ticks_dc);
    2d46:	92 e0       	ldi	r25, 0x02	; 2
    2d48:	9a 95       	dec	r25
    2d4a:	f1 f7       	brne	.-4      	; 0x2d48 <LCD_Send_Command+0x1c>
    2d4c:	00 c0       	rjmp	.+0      	; 0x2d4e <LCD_Send_Command+0x22>
	_delay_us(1);
	PORTC &= ~(1 << E);
    2d4e:	95 b3       	in	r25, 0x15	; 21
    2d50:	9f 7d       	andi	r25, 0xDF	; 223
    2d52:	95 bb       	out	0x15, r25	; 21
    2d54:	ef e8       	ldi	r30, 0x8F	; 143
    2d56:	f1 e0       	ldi	r31, 0x01	; 1
    2d58:	31 97       	sbiw	r30, 0x01	; 1
    2d5a:	f1 f7       	brne	.-4      	; 0x2d58 <LCD_Send_Command+0x2c>
    2d5c:	00 c0       	rjmp	.+0      	; 0x2d5e <LCD_Send_Command+0x32>
    2d5e:	00 00       	nop
	_delay_us(200);
	
	 PORTC = (PORTC & 0xF0) | (cmd & 0x0F);
    2d60:	95 b3       	in	r25, 0x15	; 21
    2d62:	90 7f       	andi	r25, 0xF0	; 240
    2d64:	8f 70       	andi	r24, 0x0F	; 15
    2d66:	89 2b       	or	r24, r25
    2d68:	85 bb       	out	0x15, r24	; 21
	 
	 PORTC |= (1 << E);   // Enable pulse
    2d6a:	85 b3       	in	r24, 0x15	; 21
    2d6c:	80 62       	ori	r24, 0x20	; 32
    2d6e:	85 bb       	out	0x15, r24	; 21
    2d70:	f2 e0       	ldi	r31, 0x02	; 2
    2d72:	fa 95       	dec	r31
    2d74:	f1 f7       	brne	.-4      	; 0x2d72 <LCD_Send_Command+0x46>
    2d76:	00 c0       	rjmp	.+0      	; 0x2d78 <LCD_Send_Command+0x4c>
	 _delay_us(1);
	 PORTC &= ~(1 << E);
    2d78:	85 b3       	in	r24, 0x15	; 21
    2d7a:	8f 7d       	andi	r24, 0xDF	; 223
    2d7c:	85 bb       	out	0x15, r24	; 21
    2d7e:	85 e0       	ldi	r24, 0x05	; 5
    2d80:	8a 95       	dec	r24
    2d82:	f1 f7       	brne	.-4      	; 0x2d80 <LCD_Send_Command+0x54>
    2d84:	00 00       	nop
    2d86:	08 95       	ret

00002d88 <LCD_Clear>:
	LCD_SetCursor(2,1);
	LCD_Send_String("IC Name : ");
}

void LCD_Clear(void) {
	LCD_Send_Command(0x01); // Clear display
    2d88:	81 e0       	ldi	r24, 0x01	; 1
    2d8a:	0e 94 96 16 	call	0x2d2c	; 0x2d2c <LCD_Send_Command>
	#else
		//round up by default
		__ticks_dc = (uint32_t)(ceil(fabs(__tmp)));
	#endif

	__builtin_avr_delay_cycles(__ticks_dc);
    2d8e:	8f e9       	ldi	r24, 0x9F	; 159
    2d90:	9f e0       	ldi	r25, 0x0F	; 15
    2d92:	01 97       	sbiw	r24, 0x01	; 1
    2d94:	f1 f7       	brne	.-4      	; 0x2d92 <LCD_Clear+0xa>
    2d96:	00 c0       	rjmp	.+0      	; 0x2d98 <LCD_Clear+0x10>
    2d98:	00 00       	nop
    2d9a:	08 95       	ret

00002d9c <LCD_Send_Data>:
}


// Send data (character) to the LCD
void LCD_Send_Data(char data) {
	PORTC |= (1 << RS);  // RS = 1 (data mode)
    2d9c:	95 b3       	in	r25, 0x15	; 21
    2d9e:	90 61       	ori	r25, 0x10	; 16
    2da0:	95 bb       	out	0x15, r25	; 21
	
	// Send higher nibble
	PORTC = (PORTC & 0xF0) | ((data >> 4) & 0x0F);
    2da2:	95 b3       	in	r25, 0x15	; 21
    2da4:	90 7f       	andi	r25, 0xF0	; 240
    2da6:	28 2f       	mov	r18, r24
    2da8:	22 95       	swap	r18
    2daa:	2f 70       	andi	r18, 0x0F	; 15
    2dac:	92 2b       	or	r25, r18
    2dae:	95 bb       	out	0x15, r25	; 21
	PORTC |= (1 << E);   // Enable pulse
    2db0:	95 b3       	in	r25, 0x15	; 21
    2db2:	90 62       	ori	r25, 0x20	; 32
    2db4:	95 bb       	out	0x15, r25	; 21
	#else
		//round up by default
		__ticks_dc = (uint32_t)(ceil(fabs(__tmp)));
	#endif

	__builtin_avr_delay_cycles(__ticks_dc);
    2db6:	92 e0       	ldi	r25, 0x02	; 2
    2db8:	9a 95       	dec	r25
    2dba:	f1 f7       	brne	.-4      	; 0x2db8 <LCD_Send_Data+0x1c>
    2dbc:	00 c0       	rjmp	.+0      	; 0x2dbe <LCD_Send_Data+0x22>
	_delay_us(1);
	PORTC &= ~(1 << E);
    2dbe:	95 b3       	in	r25, 0x15	; 21
    2dc0:	9f 7d       	andi	r25, 0xDF	; 223
    2dc2:	95 bb       	out	0x15, r25	; 21
    2dc4:	ef e8       	ldi	r30, 0x8F	; 143
    2dc6:	f1 e0       	ldi	r31, 0x01	; 1
    2dc8:	31 97       	sbiw	r30, 0x01	; 1
    2dca:	f1 f7       	brne	.-4      	; 0x2dc8 <LCD_Send_Data+0x2c>
    2dcc:	00 c0       	rjmp	.+0      	; 0x2dce <LCD_Send_Data+0x32>
    2dce:	00 00       	nop
	_delay_us(200);
	
	// Send lower nibble
	PORTC = (PORTC & 0xF0) | (data & 0x0F);
    2dd0:	95 b3       	in	r25, 0x15	; 21
    2dd2:	90 7f       	andi	r25, 0xF0	; 240
    2dd4:	8f 70       	andi	r24, 0x0F	; 15
    2dd6:	89 2b       	or	r24, r25
    2dd8:	85 bb       	out	0x15, r24	; 21
	PORTC |= (1 << E);   // Enable pulse
    2dda:	85 b3       	in	r24, 0x15	; 21
    2ddc:	80 62       	ori	r24, 0x20	; 32
    2dde:	85 bb       	out	0x15, r24	; 21
    2de0:	f2 e0       	ldi	r31, 0x02	; 2
    2de2:	fa 95       	dec	r31
    2de4:	f1 f7       	brne	.-4      	; 0x2de2 <LCD_Send_Data+0x46>
    2de6:	00 c0       	rjmp	.+0      	; 0x2de8 <LCD_Send_Data+0x4c>
	_delay_us(1);
	PORTC &= ~(1 << E);
    2de8:	85 b3       	in	r24, 0x15	; 21
    2dea:	8f 7d       	andi	r24, 0xDF	; 223
    2dec:	85 bb       	out	0x15, r24	; 21
    2dee:	85 e0       	ldi	r24, 0x05	; 5
    2df0:	8a 95       	dec	r24
    2df2:	f1 f7       	brne	.-4      	; 0x2df0 <LCD_Send_Data+0x54>
    2df4:	00 00       	nop
    2df6:	08 95       	ret

00002df8 <LCD_Send_String>:
	_delay_us(2);
}

void LCD_Send_String(char *str){
    2df8:	cf 93       	push	r28
    2dfa:	df 93       	push	r29
    2dfc:	ec 01       	movw	r28, r24
	while(*str){
    2dfe:	09 c0       	rjmp	.+18     	; 0x2e12 <LCD_Send_String+0x1a>
		LCD_Send_Data(*str);
    2e00:	0e 94 ce 16 	call	0x2d9c	; 0x2d9c <LCD_Send_Data>
		*str++;
    2e04:	21 96       	adiw	r28, 0x01	; 1
	#else
		//round up by default
		__ticks_dc = (uint32_t)(ceil(fabs(__tmp)));
	#endif

	__builtin_avr_delay_cycles(__ticks_dc);
    2e06:	8f e1       	ldi	r24, 0x1F	; 31
    2e08:	9e e4       	ldi	r25, 0x4E	; 78
    2e0a:	01 97       	sbiw	r24, 0x01	; 1
    2e0c:	f1 f7       	brne	.-4      	; 0x2e0a <LCD_Send_String+0x12>
    2e0e:	00 c0       	rjmp	.+0      	; 0x2e10 <LCD_Send_String+0x18>
    2e10:	00 00       	nop
	PORTC &= ~(1 << E);
	_delay_us(2);
}

void LCD_Send_String(char *str){
	while(*str){
    2e12:	88 81       	ld	r24, Y
    2e14:	81 11       	cpse	r24, r1
    2e16:	f4 cf       	rjmp	.-24     	; 0x2e00 <LCD_Send_String+0x8>
		LCD_Send_Data(*str);
		*str++;
		_delay_ms(10);
	}
}
    2e18:	df 91       	pop	r29
    2e1a:	cf 91       	pop	r28
    2e1c:	08 95       	ret

00002e1e <LCD_SetCursor>:

void LCD_SetCursor(uint8_t row, uint8_t col) {
	uint8_t address = (row == 1) ? 0x00 : 0x40; // Line 1 or Line 2
    2e1e:	81 30       	cpi	r24, 0x01	; 1
    2e20:	11 f4       	brne	.+4      	; 0x2e26 <LCD_SetCursor+0x8>
    2e22:	80 e0       	ldi	r24, 0x00	; 0
    2e24:	01 c0       	rjmp	.+2      	; 0x2e28 <LCD_SetCursor+0xa>
    2e26:	80 e4       	ldi	r24, 0x40	; 64
	address += col;
    2e28:	86 0f       	add	r24, r22
	LCD_Send_Command(0x80 | address); // Set DDRAM address
    2e2a:	80 68       	ori	r24, 0x80	; 128
    2e2c:	0e 94 96 16 	call	0x2d2c	; 0x2d2c <LCD_Send_Command>
    2e30:	08 95       	ret

00002e32 <LCD_Init>:

/* ======================================================== LCD Configuration ================================================ */

void LCD_Init(void){
	uint8_t cmd ;
	DDRC = 0xFF;
    2e32:	8f ef       	ldi	r24, 0xFF	; 255
    2e34:	84 bb       	out	0x14, r24	; 20
	PORTC = 0x00;
    2e36:	15 ba       	out	0x15, r1	; 21
    2e38:	8f e3       	ldi	r24, 0x3F	; 63
    2e3a:	9c e9       	ldi	r25, 0x9C	; 156
    2e3c:	01 97       	sbiw	r24, 0x01	; 1
    2e3e:	f1 f7       	brne	.-4      	; 0x2e3c <LCD_Init+0xa>
    2e40:	00 c0       	rjmp	.+0      	; 0x2e42 <LCD_Init+0x10>
    2e42:	00 00       	nop
	_delay_ms(20);

	// Function set: 4-bit mode
	LCD_Send_Command(0x33);
    2e44:	83 e3       	ldi	r24, 0x33	; 51
    2e46:	0e 94 96 16 	call	0x2d2c	; 0x2d2c <LCD_Send_Command>
	LCD_Send_Command(0x32);
    2e4a:	82 e3       	ldi	r24, 0x32	; 50
    2e4c:	0e 94 96 16 	call	0x2d2c	; 0x2d2c <LCD_Send_Command>
	LCD_Send_Command(0x28); // 2 lines, 5x8 matrix
    2e50:	88 e2       	ldi	r24, 0x28	; 40
    2e52:	0e 94 96 16 	call	0x2d2c	; 0x2d2c <LCD_Send_Command>
	LCD_Send_Command(0x0C);					// Display on, cursor off, no blinking
    2e56:	8c e0       	ldi	r24, 0x0C	; 12
    2e58:	0e 94 96 16 	call	0x2d2c	; 0x2d2c <LCD_Send_Command>
	LCD_Send_Command(0x06);					// Entry mode set: increment cursor, no shift
    2e5c:	86 e0       	ldi	r24, 0x06	; 6
    2e5e:	0e 94 96 16 	call	0x2d2c	; 0x2d2c <LCD_Send_Command>
	LCD_Clear()	;
    2e62:	0e 94 c4 16 	call	0x2d88	; 0x2d88 <LCD_Clear>
	
	LCD_SetCursor(1,3);
    2e66:	63 e0       	ldi	r22, 0x03	; 3
    2e68:	81 e0       	ldi	r24, 0x01	; 1
    2e6a:	0e 94 0f 17 	call	0x2e1e	; 0x2e1e <LCD_SetCursor>
	LCD_Send_String("IC Tester");
    2e6e:	8b ec       	ldi	r24, 0xCB	; 203
    2e70:	91 e0       	ldi	r25, 0x01	; 1
    2e72:	0e 94 fc 16 	call	0x2df8	; 0x2df8 <LCD_Send_String>
	LCD_SetCursor(2,1);
    2e76:	61 e0       	ldi	r22, 0x01	; 1
    2e78:	82 e0       	ldi	r24, 0x02	; 2
    2e7a:	0e 94 0f 17 	call	0x2e1e	; 0x2e1e <LCD_SetCursor>
	LCD_Send_String("IC Name : ");
    2e7e:	85 ed       	ldi	r24, 0xD5	; 213
    2e80:	91 e0       	ldi	r25, 0x01	; 1
    2e82:	0e 94 fc 16 	call	0x2df8	; 0x2df8 <LCD_Send_String>
    2e86:	08 95       	ret

00002e88 <Init>:
}


/* ==================================================================================== Init Function ======================================================================================================== */
void Init(void){
	EXT_INTx_Init(&begin_test);
    2e88:	80 e6       	ldi	r24, 0x60	; 96
    2e8a:	90 e0       	ldi	r25, 0x00	; 0
    2e8c:	0e 94 fa 17 	call	0x2ff4	; 0x2ff4 <EXT_INTx_Init>
	USART_Init();
    2e90:	0e 94 01 16 	call	0x2c02	; 0x2c02 <USART_Init>
	LCD_Init();
    2e94:	0e 94 19 17 	call	0x2e32	; 0x2e32 <LCD_Init>
    2e98:	08 95       	ret

00002e9a <main>:


int main(void)
{
	uint8_t trav_ICs;
	Init();
    2e9a:	0e 94 44 17 	call	0x2e88	; 0x2e88 <Init>
    /* Replace with your application code */
    while (1) 
    {
		if(begin_flag){
    2e9e:	80 91 fc 01 	lds	r24, 0x01FC	; 0x8001fc <__data_end>
    2ea2:	88 23       	and	r24, r24
    2ea4:	e1 f3       	breq	.-8      	; 0x2e9e <main+0x4>
    2ea6:	5a c0       	rjmp	.+180    	; 0x2f5c <main+0xc2>
			for (trav_ICs = 0 ; trav_ICs < Number_of_ICs ; trav_ICs++){
				memcpy_P(&temp,ICs[trav_ICs],sizeof(IC_INFO));					// get struct from flash to SRAM
    2ea8:	e1 2f       	mov	r30, r17
    2eaa:	f0 e0       	ldi	r31, 0x00	; 0
    2eac:	ee 0f       	add	r30, r30
    2eae:	ff 1f       	adc	r31, r31
    2eb0:	e9 59       	subi	r30, 0x99	; 153
    2eb2:	ff 4f       	sbci	r31, 0xFF	; 255
    2eb4:	60 81       	ld	r22, Z
    2eb6:	71 81       	ldd	r23, Z+1	; 0x01
    2eb8:	4e e0       	ldi	r20, 0x0E	; 14
    2eba:	50 e0       	ldi	r21, 0x00	; 0
    2ebc:	8e ef       	ldi	r24, 0xFE	; 254
    2ebe:	91 e0       	ldi	r25, 0x01	; 1
    2ec0:	0e 94 cd 18 	call	0x319a	; 0x319a <memcpy_P>
				memcpy_P(&logic_array,temp.logic,temp.sizeof_array_logic * sizeof(uint16_t));			// get logic array from Flash to SRAM
    2ec4:	ce ef       	ldi	r28, 0xFE	; 254
    2ec6:	d1 e0       	ldi	r29, 0x01	; 1
    2ec8:	4d 85       	ldd	r20, Y+13	; 0x0d
    2eca:	6e 81       	ldd	r22, Y+6	; 0x06
    2ecc:	7f 81       	ldd	r23, Y+7	; 0x07
    2ece:	50 e0       	ldi	r21, 0x00	; 0
    2ed0:	44 0f       	add	r20, r20
    2ed2:	55 1f       	adc	r21, r21
    2ed4:	8c e0       	ldi	r24, 0x0C	; 12
    2ed6:	92 e0       	ldi	r25, 0x02	; 2
    2ed8:	0e 94 cd 18 	call	0x319a	; 0x319a <memcpy_P>
				memcpy_P(&dont_care,temp.dont_care,temp.sizeof_array_logic * sizeof(uint16_t));
    2edc:	4d 85       	ldd	r20, Y+13	; 0x0d
    2ede:	68 85       	ldd	r22, Y+8	; 0x08
    2ee0:	79 85       	ldd	r23, Y+9	; 0x09
    2ee2:	50 e0       	ldi	r21, 0x00	; 0
    2ee4:	44 0f       	add	r20, r20
    2ee6:	55 1f       	adc	r21, r21
    2ee8:	8a e8       	ldi	r24, 0x8A	; 138
    2eea:	92 e0       	ldi	r25, 0x02	; 2
    2eec:	0e 94 cd 18 	call	0x319a	; 0x319a <memcpy_P>
				memcpy_P(&clk,temp.clk,temp.sizeof_array_logic * sizeof(uint16_t));
    2ef0:	4d 85       	ldd	r20, Y+13	; 0x0d
    2ef2:	6a 85       	ldd	r22, Y+10	; 0x0a
    2ef4:	7b 85       	ldd	r23, Y+11	; 0x0b
    2ef6:	50 e0       	ldi	r21, 0x00	; 0
    2ef8:	44 0f       	add	r20, r20
    2efa:	55 1f       	adc	r21, r21
    2efc:	8a e4       	ldi	r24, 0x4A	; 74
    2efe:	92 e0       	ldi	r25, 0x02	; 2
    2f00:	0e 94 cd 18 	call	0x319a	; 0x319a <memcpy_P>
				test_flag = Test_IC(&temp);							// function to apply pattern for an ic
    2f04:	ce 01       	movw	r24, r28
    2f06:	0e 94 bc 15 	call	0x2b78	; 0x2b78 <Test_IC>
    2f0a:	80 93 fd 01 	sts	0x01FD, r24	; 0x8001fd <test_flag>
				if(test_flag){
    2f0e:	88 23       	and	r24, r24
    2f10:	e9 f0       	breq	.+58     	; 0x2f4c <main+0xb2>
					unsignedIntToStr(temp.Name,temp_Name);
    2f12:	60 91 fe 01 	lds	r22, 0x01FE	; 0x8001fe <temp>
    2f16:	70 91 ff 01 	lds	r23, 0x01FF	; 0x8001ff <temp+0x1>
    2f1a:	80 91 00 02 	lds	r24, 0x0200	; 0x800200 <temp+0x2>
    2f1e:	90 91 01 02 	lds	r25, 0x0201	; 0x800201 <temp+0x3>
    2f22:	48 ec       	ldi	r20, 0xC8	; 200
    2f24:	52 e0       	ldi	r21, 0x02	; 2
    2f26:	0e 94 09 16 	call	0x2c12	; 0x2c12 <unsignedIntToStr>
					LCD_SetCursor(2,11);
    2f2a:	6b e0       	ldi	r22, 0x0B	; 11
    2f2c:	82 e0       	ldi	r24, 0x02	; 2
    2f2e:	0e 94 0f 17 	call	0x2e1e	; 0x2e1e <LCD_SetCursor>
					LCD_Send_String("     ");
    2f32:	8b ee       	ldi	r24, 0xEB	; 235
    2f34:	91 e0       	ldi	r25, 0x01	; 1
    2f36:	0e 94 fc 16 	call	0x2df8	; 0x2df8 <LCD_Send_String>
					LCD_SetCursor(2,11);
    2f3a:	6b e0       	ldi	r22, 0x0B	; 11
    2f3c:	82 e0       	ldi	r24, 0x02	; 2
    2f3e:	0e 94 0f 17 	call	0x2e1e	; 0x2e1e <LCD_SetCursor>
					LCD_Send_String(temp_Name);
    2f42:	88 ec       	ldi	r24, 0xC8	; 200
    2f44:	92 e0       	ldi	r25, 0x02	; 2
    2f46:	0e 94 fc 16 	call	0x2df8	; 0x2df8 <LCD_Send_String>
					break;
    2f4a:	0e c0       	rjmp	.+28     	; 0x2f68 <main+0xce>
				}
				clear_logic_array();
    2f4c:	0e 94 5d 16 	call	0x2cba	; 0x2cba <clear_logic_array>
				clear_dont_care_array();
    2f50:	0e 94 70 16 	call	0x2ce0	; 0x2ce0 <clear_dont_care_array>
				clear_clk_array();
    2f54:	0e 94 83 16 	call	0x2d06	; 0x2d06 <clear_clk_array>
	Init();
    /* Replace with your application code */
    while (1) 
    {
		if(begin_flag){
			for (trav_ICs = 0 ; trav_ICs < Number_of_ICs ; trav_ICs++){
    2f58:	1f 5f       	subi	r17, 0xFF	; 255
    2f5a:	01 c0       	rjmp	.+2      	; 0x2f5e <main+0xc4>
    2f5c:	10 e0       	ldi	r17, 0x00	; 0
    2f5e:	80 91 66 00 	lds	r24, 0x0066	; 0x800066 <Number_of_ICs>
    2f62:	18 17       	cp	r17, r24
    2f64:	08 f4       	brcc	.+2      	; 0x2f68 <main+0xce>
    2f66:	a0 cf       	rjmp	.-192    	; 0x2ea8 <main+0xe>
				}
				clear_logic_array();
				clear_dont_care_array();
				clear_clk_array();
			}
			if (!test_flag){
    2f68:	80 91 fd 01 	lds	r24, 0x01FD	; 0x8001fd <test_flag>
    2f6c:	81 11       	cpse	r24, r1
    2f6e:	10 c0       	rjmp	.+32     	; 0x2f90 <main+0xf6>
				LCD_SetCursor(2,1);
    2f70:	61 e0       	ldi	r22, 0x01	; 1
    2f72:	82 e0       	ldi	r24, 0x02	; 2
    2f74:	0e 94 0f 17 	call	0x2e1e	; 0x2e1e <LCD_SetCursor>
				LCD_Send_String("                ");
    2f78:	80 ee       	ldi	r24, 0xE0	; 224
    2f7a:	91 e0       	ldi	r25, 0x01	; 1
    2f7c:	0e 94 fc 16 	call	0x2df8	; 0x2df8 <LCD_Send_String>
				LCD_SetCursor(2,3);
    2f80:	63 e0       	ldi	r22, 0x03	; 3
    2f82:	82 e0       	ldi	r24, 0x02	; 2
    2f84:	0e 94 0f 17 	call	0x2e1e	; 0x2e1e <LCD_SetCursor>
				LCD_Send_String("Not Found");
    2f88:	81 ef       	ldi	r24, 0xF1	; 241
    2f8a:	91 e0       	ldi	r25, 0x01	; 1
    2f8c:	0e 94 fc 16 	call	0x2df8	; 0x2df8 <LCD_Send_String>
				// code to show not founded
			}
			begin_flag = false;
    2f90:	10 92 fc 01 	sts	0x01FC, r1	; 0x8001fc <__data_end>
    2f94:	84 cf       	rjmp	.-248    	; 0x2e9e <main+0x4>

00002f96 <EXT_INT0_Init>:
	sei();
}

static void EXT_INT0_Init(INT_SENSE_CONT sel_sense){
	// Disable int0 
	GICR &= ~(1 <<INT0);
    2f96:	9b b7       	in	r25, 0x3b	; 59
    2f98:	9f 7b       	andi	r25, 0xBF	; 191
    2f9a:	9b bf       	out	0x3b, r25	; 59
	// Interrupt sense control 
	MCUCR &= ~(1 << ISC00) & ~(1<< ISC01);
    2f9c:	95 b7       	in	r25, 0x35	; 53
    2f9e:	9c 7f       	andi	r25, 0xFC	; 252
    2fa0:	95 bf       	out	0x35, r25	; 53
	MCUCR |= (sel_sense << ISC00);
    2fa2:	95 b7       	in	r25, 0x35	; 53
    2fa4:	89 2b       	or	r24, r25
    2fa6:	85 bf       	out	0x35, r24	; 53
	// Enable int0 
	GICR |= (1 << INT0);	
    2fa8:	8b b7       	in	r24, 0x3b	; 59
    2faa:	80 64       	ori	r24, 0x40	; 64
    2fac:	8b bf       	out	0x3b, r24	; 59
    2fae:	08 95       	ret

00002fb0 <EXT_INT1_Init>:
}
static void EXT_INT1_Init(INT_SENSE_CONT sel_sense){
	// Disable int1
	GICR &= ~(1 <<INT1);
    2fb0:	9b b7       	in	r25, 0x3b	; 59
    2fb2:	9f 77       	andi	r25, 0x7F	; 127
    2fb4:	9b bf       	out	0x3b, r25	; 59
	// Interrupt sense control
	MCUCR &= ~(1 << ISC10) & ~(1<< ISC11);
    2fb6:	95 b7       	in	r25, 0x35	; 53
    2fb8:	93 7f       	andi	r25, 0xF3	; 243
    2fba:	95 bf       	out	0x35, r25	; 53
	MCUCR |= (sel_sense << ISC10);
    2fbc:	25 b7       	in	r18, 0x35	; 53
    2fbe:	90 e0       	ldi	r25, 0x00	; 0
    2fc0:	88 0f       	add	r24, r24
    2fc2:	99 1f       	adc	r25, r25
    2fc4:	88 0f       	add	r24, r24
    2fc6:	99 1f       	adc	r25, r25
    2fc8:	82 2b       	or	r24, r18
    2fca:	85 bf       	out	0x35, r24	; 53
	// Enable int1
	GICR |= (1 << INT1);
    2fcc:	8b b7       	in	r24, 0x3b	; 59
    2fce:	80 68       	ori	r24, 0x80	; 128
    2fd0:	8b bf       	out	0x3b, r24	; 59
    2fd2:	08 95       	ret

00002fd4 <EXT_INT2_Init>:
}
static void EXT_INT2_Init(INT_SENSE_CONT sel_sense){
	// Disable int2
	GICR &= ~(1 <<INT2);
    2fd4:	9b b7       	in	r25, 0x3b	; 59
    2fd6:	9f 7d       	andi	r25, 0xDF	; 223
    2fd8:	9b bf       	out	0x3b, r25	; 59
	// Interrupt sense control
	if (sel_sense == INT_RISING_EDGE){
    2fda:	83 30       	cpi	r24, 0x03	; 3
    2fdc:	21 f4       	brne	.+8      	; 0x2fe6 <EXT_INT2_Init+0x12>
		MCUCSR |= (1 << ISC2);
    2fde:	84 b7       	in	r24, 0x34	; 52
    2fe0:	80 64       	ori	r24, 0x40	; 64
    2fe2:	84 bf       	out	0x34, r24	; 52
    2fe4:	03 c0       	rjmp	.+6      	; 0x2fec <EXT_INT2_Init+0x18>
	}
	else{
		MCUCSR &= ~(1 << ISC2);
    2fe6:	84 b7       	in	r24, 0x34	; 52
    2fe8:	8f 7b       	andi	r24, 0xBF	; 191
    2fea:	84 bf       	out	0x34, r24	; 52
	}
	// Enable int2
	GICR |= (1 << INT2);
    2fec:	8b b7       	in	r24, 0x3b	; 59
    2fee:	80 62       	ori	r24, 0x20	; 32
    2ff0:	8b bf       	out	0x3b, r24	; 59
    2ff2:	08 95       	ret

00002ff4 <EXT_INTx_Init>:
void (*Interrupt0_callback)(void);
void (*Interrupt1_callback)(void);
void (*Interrupt2_callback)(void);


void EXT_INTx_Init(EXT_INT_CONFIG *ext_intx){
    2ff4:	cf 93       	push	r28
    2ff6:	df 93       	push	r29
	if(ext_intx != NULL){
    2ff8:	00 97       	sbiw	r24, 0x00	; 0
    2ffa:	29 f1       	breq	.+74     	; 0x3046 <EXT_INTx_Init+0x52>
    2ffc:	ec 01       	movw	r28, r24
		if (ext_intx->intx == EXT_INT0){
    2ffe:	88 81       	ld	r24, Y
    3000:	81 11       	cpse	r24, r1
    3002:	0a c0       	rjmp	.+20     	; 0x3018 <EXT_INTx_Init+0x24>
			EXT_INT0_Init(ext_intx->sel_sense);
    3004:	89 81       	ldd	r24, Y+1	; 0x01
    3006:	0e 94 cb 17 	call	0x2f96	; 0x2f96 <EXT_INT0_Init>
			Interrupt0_callback = ext_intx->InterruptHandler;
    300a:	8a 81       	ldd	r24, Y+2	; 0x02
    300c:	9b 81       	ldd	r25, Y+3	; 0x03
    300e:	90 93 cf 02 	sts	0x02CF, r25	; 0x8002cf <Interrupt0_callback+0x1>
    3012:	80 93 ce 02 	sts	0x02CE, r24	; 0x8002ce <Interrupt0_callback>
    3016:	17 c0       	rjmp	.+46     	; 0x3046 <EXT_INTx_Init+0x52>
		}
		else if (ext_intx->intx == EXT_INT1){
    3018:	81 30       	cpi	r24, 0x01	; 1
    301a:	51 f4       	brne	.+20     	; 0x3030 <EXT_INTx_Init+0x3c>
			EXT_INT1_Init(ext_intx->sel_sense);
    301c:	89 81       	ldd	r24, Y+1	; 0x01
    301e:	0e 94 d8 17 	call	0x2fb0	; 0x2fb0 <EXT_INT1_Init>
			Interrupt1_callback = ext_intx->InterruptHandler;
    3022:	8a 81       	ldd	r24, Y+2	; 0x02
    3024:	9b 81       	ldd	r25, Y+3	; 0x03
    3026:	90 93 d3 02 	sts	0x02D3, r25	; 0x8002d3 <Interrupt1_callback+0x1>
    302a:	80 93 d2 02 	sts	0x02D2, r24	; 0x8002d2 <Interrupt1_callback>
    302e:	0b c0       	rjmp	.+22     	; 0x3046 <EXT_INTx_Init+0x52>
		}
		else if (ext_intx->intx == EXT_INT2){
    3030:	82 30       	cpi	r24, 0x02	; 2
    3032:	49 f4       	brne	.+18     	; 0x3046 <EXT_INTx_Init+0x52>
			EXT_INT2_Init(ext_intx->sel_sense);
    3034:	89 81       	ldd	r24, Y+1	; 0x01
    3036:	0e 94 ea 17 	call	0x2fd4	; 0x2fd4 <EXT_INT2_Init>
			Interrupt2_callback = ext_intx->InterruptHandler;
    303a:	8a 81       	ldd	r24, Y+2	; 0x02
    303c:	9b 81       	ldd	r25, Y+3	; 0x03
    303e:	90 93 d1 02 	sts	0x02D1, r25	; 0x8002d1 <Interrupt2_callback+0x1>
    3042:	80 93 d0 02 	sts	0x02D0, r24	; 0x8002d0 <Interrupt2_callback>
		}
		else{
			/*nothing*/
		}
	}
	sei();
    3046:	78 94       	sei
}
    3048:	df 91       	pop	r29
    304a:	cf 91       	pop	r28
    304c:	08 95       	ret

0000304e <__vector_1>:
	GICR |= (1 << INT2);
}


// ISR for INT0
ISR(INT0_vect) {
    304e:	1f 92       	push	r1
    3050:	0f 92       	push	r0
    3052:	0f b6       	in	r0, 0x3f	; 63
    3054:	0f 92       	push	r0
    3056:	11 24       	eor	r1, r1
    3058:	2f 93       	push	r18
    305a:	3f 93       	push	r19
    305c:	4f 93       	push	r20
    305e:	5f 93       	push	r21
    3060:	6f 93       	push	r22
    3062:	7f 93       	push	r23
    3064:	8f 93       	push	r24
    3066:	9f 93       	push	r25
    3068:	af 93       	push	r26
    306a:	bf 93       	push	r27
    306c:	ef 93       	push	r30
    306e:	ff 93       	push	r31
	GIFR &= ~(1 << INTF0);
    3070:	8a b7       	in	r24, 0x3a	; 58
    3072:	8f 7b       	andi	r24, 0xBF	; 191
    3074:	8a bf       	out	0x3a, r24	; 58
	if (Interrupt0_callback){
    3076:	e0 91 ce 02 	lds	r30, 0x02CE	; 0x8002ce <Interrupt0_callback>
    307a:	f0 91 cf 02 	lds	r31, 0x02CF	; 0x8002cf <Interrupt0_callback+0x1>
    307e:	30 97       	sbiw	r30, 0x00	; 0
    3080:	09 f0       	breq	.+2      	; 0x3084 <__vector_1+0x36>
		Interrupt0_callback();
    3082:	09 95       	icall
	}
}
    3084:	ff 91       	pop	r31
    3086:	ef 91       	pop	r30
    3088:	bf 91       	pop	r27
    308a:	af 91       	pop	r26
    308c:	9f 91       	pop	r25
    308e:	8f 91       	pop	r24
    3090:	7f 91       	pop	r23
    3092:	6f 91       	pop	r22
    3094:	5f 91       	pop	r21
    3096:	4f 91       	pop	r20
    3098:	3f 91       	pop	r19
    309a:	2f 91       	pop	r18
    309c:	0f 90       	pop	r0
    309e:	0f be       	out	0x3f, r0	; 63
    30a0:	0f 90       	pop	r0
    30a2:	1f 90       	pop	r1
    30a4:	18 95       	reti

000030a6 <__vector_2>:

// ISR for INT1
ISR(INT1_vect) {
    30a6:	1f 92       	push	r1
    30a8:	0f 92       	push	r0
    30aa:	0f b6       	in	r0, 0x3f	; 63
    30ac:	0f 92       	push	r0
    30ae:	11 24       	eor	r1, r1
    30b0:	2f 93       	push	r18
    30b2:	3f 93       	push	r19
    30b4:	4f 93       	push	r20
    30b6:	5f 93       	push	r21
    30b8:	6f 93       	push	r22
    30ba:	7f 93       	push	r23
    30bc:	8f 93       	push	r24
    30be:	9f 93       	push	r25
    30c0:	af 93       	push	r26
    30c2:	bf 93       	push	r27
    30c4:	ef 93       	push	r30
    30c6:	ff 93       	push	r31
	GIFR &= ~(1 << INTF1);
    30c8:	8a b7       	in	r24, 0x3a	; 58
    30ca:	8f 77       	andi	r24, 0x7F	; 127
    30cc:	8a bf       	out	0x3a, r24	; 58
	if (Interrupt1_callback){
    30ce:	e0 91 d2 02 	lds	r30, 0x02D2	; 0x8002d2 <Interrupt1_callback>
    30d2:	f0 91 d3 02 	lds	r31, 0x02D3	; 0x8002d3 <Interrupt1_callback+0x1>
    30d6:	30 97       	sbiw	r30, 0x00	; 0
    30d8:	09 f0       	breq	.+2      	; 0x30dc <__vector_2+0x36>
		Interrupt1_callback();
    30da:	09 95       	icall
	}
}
    30dc:	ff 91       	pop	r31
    30de:	ef 91       	pop	r30
    30e0:	bf 91       	pop	r27
    30e2:	af 91       	pop	r26
    30e4:	9f 91       	pop	r25
    30e6:	8f 91       	pop	r24
    30e8:	7f 91       	pop	r23
    30ea:	6f 91       	pop	r22
    30ec:	5f 91       	pop	r21
    30ee:	4f 91       	pop	r20
    30f0:	3f 91       	pop	r19
    30f2:	2f 91       	pop	r18
    30f4:	0f 90       	pop	r0
    30f6:	0f be       	out	0x3f, r0	; 63
    30f8:	0f 90       	pop	r0
    30fa:	1f 90       	pop	r1
    30fc:	18 95       	reti

000030fe <__vector_3>:

// ISR for INT2
ISR(INT2_vect) {
    30fe:	1f 92       	push	r1
    3100:	0f 92       	push	r0
    3102:	0f b6       	in	r0, 0x3f	; 63
    3104:	0f 92       	push	r0
    3106:	11 24       	eor	r1, r1
    3108:	2f 93       	push	r18
    310a:	3f 93       	push	r19
    310c:	4f 93       	push	r20
    310e:	5f 93       	push	r21
    3110:	6f 93       	push	r22
    3112:	7f 93       	push	r23
    3114:	8f 93       	push	r24
    3116:	9f 93       	push	r25
    3118:	af 93       	push	r26
    311a:	bf 93       	push	r27
    311c:	ef 93       	push	r30
    311e:	ff 93       	push	r31
	GIFR &= ~(1 << INTF2);
    3120:	8a b7       	in	r24, 0x3a	; 58
    3122:	8f 7d       	andi	r24, 0xDF	; 223
    3124:	8a bf       	out	0x3a, r24	; 58
	if (Interrupt2_callback){
    3126:	e0 91 d0 02 	lds	r30, 0x02D0	; 0x8002d0 <Interrupt2_callback>
    312a:	f0 91 d1 02 	lds	r31, 0x02D1	; 0x8002d1 <Interrupt2_callback+0x1>
    312e:	30 97       	sbiw	r30, 0x00	; 0
    3130:	09 f0       	breq	.+2      	; 0x3134 <__vector_3+0x36>
		Interrupt2_callback();
    3132:	09 95       	icall
	}
}
    3134:	ff 91       	pop	r31
    3136:	ef 91       	pop	r30
    3138:	bf 91       	pop	r27
    313a:	af 91       	pop	r26
    313c:	9f 91       	pop	r25
    313e:	8f 91       	pop	r24
    3140:	7f 91       	pop	r23
    3142:	6f 91       	pop	r22
    3144:	5f 91       	pop	r21
    3146:	4f 91       	pop	r20
    3148:	3f 91       	pop	r19
    314a:	2f 91       	pop	r18
    314c:	0f 90       	pop	r0
    314e:	0f be       	out	0x3f, r0	; 63
    3150:	0f 90       	pop	r0
    3152:	1f 90       	pop	r1
    3154:	18 95       	reti

00003156 <__udivmodsi4>:
    3156:	a1 e2       	ldi	r26, 0x21	; 33
    3158:	1a 2e       	mov	r1, r26
    315a:	aa 1b       	sub	r26, r26
    315c:	bb 1b       	sub	r27, r27
    315e:	fd 01       	movw	r30, r26
    3160:	0d c0       	rjmp	.+26     	; 0x317c <__udivmodsi4_ep>

00003162 <__udivmodsi4_loop>:
    3162:	aa 1f       	adc	r26, r26
    3164:	bb 1f       	adc	r27, r27
    3166:	ee 1f       	adc	r30, r30
    3168:	ff 1f       	adc	r31, r31
    316a:	a2 17       	cp	r26, r18
    316c:	b3 07       	cpc	r27, r19
    316e:	e4 07       	cpc	r30, r20
    3170:	f5 07       	cpc	r31, r21
    3172:	20 f0       	brcs	.+8      	; 0x317c <__udivmodsi4_ep>
    3174:	a2 1b       	sub	r26, r18
    3176:	b3 0b       	sbc	r27, r19
    3178:	e4 0b       	sbc	r30, r20
    317a:	f5 0b       	sbc	r31, r21

0000317c <__udivmodsi4_ep>:
    317c:	66 1f       	adc	r22, r22
    317e:	77 1f       	adc	r23, r23
    3180:	88 1f       	adc	r24, r24
    3182:	99 1f       	adc	r25, r25
    3184:	1a 94       	dec	r1
    3186:	69 f7       	brne	.-38     	; 0x3162 <__udivmodsi4_loop>
    3188:	60 95       	com	r22
    318a:	70 95       	com	r23
    318c:	80 95       	com	r24
    318e:	90 95       	com	r25
    3190:	9b 01       	movw	r18, r22
    3192:	ac 01       	movw	r20, r24
    3194:	bd 01       	movw	r22, r26
    3196:	cf 01       	movw	r24, r30
    3198:	08 95       	ret

0000319a <memcpy_P>:
    319a:	fb 01       	movw	r30, r22
    319c:	dc 01       	movw	r26, r24
    319e:	02 c0       	rjmp	.+4      	; 0x31a4 <memcpy_P+0xa>
    31a0:	05 90       	lpm	r0, Z+
    31a2:	0d 92       	st	X+, r0
    31a4:	41 50       	subi	r20, 0x01	; 1
    31a6:	50 40       	sbci	r21, 0x00	; 0
    31a8:	d8 f7       	brcc	.-10     	; 0x31a0 <memcpy_P+0x6>
    31aa:	08 95       	ret

000031ac <_exit>:
    31ac:	f8 94       	cli

000031ae <__stop_program>:
    31ae:	ff cf       	rjmp	.-2      	; 0x31ae <__stop_program>
