
IC_TESTER.elf:     file format elf32-avr

Sections:
Idx Name          Size      VMA       LMA       File off  Algn
  0 .text         0000320e  00000000  00000000  00000094  2**1
                  CONTENTS, ALLOC, LOAD, READONLY, CODE
  1 .data         000001a0  00800060  0000320e  000032a2  2**0
                  CONTENTS, ALLOC, LOAD, DATA
  2 .bss          000000d8  00800200  00800200  00003442  2**0
                  ALLOC
  3 .comment      00000030  00000000  00000000  00003442  2**0
                  CONTENTS, READONLY
  4 .note.gnu.avr.deviceinfo 0000003c  00000000  00000000  00003474  2**2
                  CONTENTS, READONLY
  5 .debug_aranges 00000110  00000000  00000000  000034b0  2**0
                  CONTENTS, READONLY, DEBUGGING
  6 .debug_info   000054f0  00000000  00000000  000035c0  2**0
                  CONTENTS, READONLY, DEBUGGING
  7 .debug_abbrev 000008b7  00000000  00000000  00008ab0  2**0
                  CONTENTS, READONLY, DEBUGGING
  8 .debug_line   00000a0c  00000000  00000000  00009367  2**0
                  CONTENTS, READONLY, DEBUGGING
  9 .debug_frame  00000330  00000000  00000000  00009d74  2**2
                  CONTENTS, READONLY, DEBUGGING
 10 .debug_str    00002647  00000000  00000000  0000a0a4  2**0
                  CONTENTS, READONLY, DEBUGGING
 11 .debug_loc    00000b2a  00000000  00000000  0000c6eb  2**0
                  CONTENTS, READONLY, DEBUGGING
 12 .debug_ranges 000000f0  00000000  00000000  0000d215  2**0
                  CONTENTS, READONLY, DEBUGGING

Disassembly of section .text:

00000000 <__vectors>:
       0:	0c 94 a5 15 	jmp	0x2b4a	; 0x2b4a <__ctors_end>
       4:	0c 94 56 18 	jmp	0x30ac	; 0x30ac <__vector_1>
       8:	0c 94 82 18 	jmp	0x3104	; 0x3104 <__vector_2>
       c:	0c 94 ae 18 	jmp	0x315c	; 0x315c <__vector_3>
      10:	0c 94 c2 15 	jmp	0x2b84	; 0x2b84 <__bad_interrupt>
      14:	0c 94 c2 15 	jmp	0x2b84	; 0x2b84 <__bad_interrupt>
      18:	0c 94 c2 15 	jmp	0x2b84	; 0x2b84 <__bad_interrupt>
      1c:	0c 94 c2 15 	jmp	0x2b84	; 0x2b84 <__bad_interrupt>
      20:	0c 94 c2 15 	jmp	0x2b84	; 0x2b84 <__bad_interrupt>
      24:	0c 94 c2 15 	jmp	0x2b84	; 0x2b84 <__bad_interrupt>
      28:	0c 94 c2 15 	jmp	0x2b84	; 0x2b84 <__bad_interrupt>
      2c:	0c 94 c2 15 	jmp	0x2b84	; 0x2b84 <__bad_interrupt>
      30:	0c 94 c2 15 	jmp	0x2b84	; 0x2b84 <__bad_interrupt>
      34:	0c 94 c2 15 	jmp	0x2b84	; 0x2b84 <__bad_interrupt>
      38:	0c 94 c2 15 	jmp	0x2b84	; 0x2b84 <__bad_interrupt>
      3c:	0c 94 c2 15 	jmp	0x2b84	; 0x2b84 <__bad_interrupt>
      40:	0c 94 c2 15 	jmp	0x2b84	; 0x2b84 <__bad_interrupt>
      44:	0c 94 c2 15 	jmp	0x2b84	; 0x2b84 <__bad_interrupt>
      48:	0c 94 c2 15 	jmp	0x2b84	; 0x2b84 <__bad_interrupt>
      4c:	0c 94 c2 15 	jmp	0x2b84	; 0x2b84 <__bad_interrupt>
      50:	0c 94 c2 15 	jmp	0x2b84	; 0x2b84 <__bad_interrupt>

00000054 <IC_74170>:
      54:	ba 21 01 00 9f fc 76 00 6c 00 62 00 00 05           .!....v.l.b...

00000062 <CLK_74170>:
	...

0000006c <Dont_care_74170>:
      6c:	ff ff ff ff ff ff ff ff ff ff                       ..........

00000076 <logic_74170>:
      76:	00 88 3c b8 12 99 18 b4 09 ca                       ..<.......

00000080 <IC_74176>:
      80:	c0 21 01 00 ed 36 ae 00 9e 00 8e 00 00 08           .!...6........

0000008e <CLK_74176>:
      8e:	a0 00 a0 00 a0 00 a0 00 a0 00 a0 00 a0 00 a0 00     ................

0000009e <Dont_care_74176>:
      9e:	ff 3f ff 3f ff 3f ff 3f ff 3f ff 3f ff 3f ff 3f     .?.?.?.?.?.?.?.?

000000ae <logic_74176>:
      ae:	01 20 00 20 1e 3f 06 33 18 3c 00 3f 1e 30 00 30     . . .?.3.<.?.0.0

000000be <IC_7486>:
      be:	3e 1d 00 00 5b 3b dc 00 d4 00 cc 00 00 04           >...[;........

000000cc <CLK_7486>:
	...

000000d4 <Dont_care_7486>:
      d4:	ff 3f ff 3f ff 3f ff 3f                             .?.?.?.?

000000dc <logic_7486>:
      dc:	00 20 b6 36 ad 2d 1b 3b                             . .6.-.;

000000e4 <IC_7485>:
      e4:	3d 1d 00 00 8f ff 22 01 0a 01 f2 00 00 0c           =.....".......

000000f2 <CLK_7485>:
	...

0000010a <Dont_care_7485>:
     10a:	ff ff ff ff ff ff ff ff ff ff ff ff ff ff ff ff     ................
     11a:	ff ff ff ff ff ff ff ff                             ........

00000122 <logic_7485>:
     122:	12 ea 49 95 13 d5 48 aa 13 c9 48 b6 13 ce 48 b1     ..I...H...H...H.
     132:	19 cc 42 b3 25 cc 0a b3                             ..B.%...

0000013a <IC_7475>:
     13a:	33 1d 00 00 7e 18 68 01 58 01 48 01 00 08           3...~.h.X.H...

00000148 <CLK_7475>:
     148:	00 00 00 00 00 10 00 10 00 10 08 00 08 00 08 00     ................

00000158 <Dont_care_7475>:
     158:	ff ff ff ff ff ff ff ff ff ff ff ff ff ff ff ff     ................

00000168 <logic_7475>:
     168:	99 34 91 24 f2 a4 f5 44 f6 c4 b0 c2 50 c5 70 c3     .4.$...D....P.p.

00000178 <IC_7474>:
     178:	32 1d 00 00 4f 3e a6 01 96 01 86 01 00 08           2...O>........

00000186 <CLK_7474>:
     186:	04 00 04 00 04 00 04 00 00 04 00 04 00 04 00 04     ................

00000196 <Dont_care_7474>:
     196:	ff 3f ff 3f ff 3f ff 3f ff 3f ff 3f ff 3f ff 3f     .?.?.?.?.?.?.?.?

000001a6 <logic_7474>:
     1a6:	aa 22 91 22 a9 22 9b 22 a8 2a 28 31 a8 32 28 3b     .".".".".*(1.2(;

000001b6 <IC_7472>:
     1b6:	30 1d 00 00 5f 3f f8 01 de 01 c4 01 00 0d           0..._?........

000001c4 <CLK_7472>:
     1c4:	00 08 00 08 00 08 00 08 00 08 00 08 00 08 00 08     ................
     1d4:	00 08 00 08 00 08 00 08 00 08                       ..........

000001de <Dont_care_7472>:
     1de:	ff 3f ff 3f ff 3f ff 3f ff 3f ff 3f ff 3f ff 3f     .?.?.?.?.?.?.?.?
     1ee:	ff 3f ff 3f ff 3f ff 3f ff 3f                       .?.?.?.?.?

000001f8 <logic_7472>:
     1f8:	3c 30 82 27 82 30 82 31 82 33 22 37 22 30 26 30     <0.'.0.1.3"7"0&0
     208:	2e 30 9e 30 3e 37 9e 37 9a 36                       .0.0>7.7.6

00000212 <IC_7465>:
     212:	29 1d 00 00 7f 3f 40 02 30 02 20 02 00 08           )....?@.0. ...

00000220 <CLK_7465>:
	...

00000230 <Dont_care_7465>:
     230:	ff 3f ff 3f ff 3f ff 3f ff 3f ff 3f ff 3f ff 3f     .?.?.?.?.?.?.?.?

00000240 <logic_7465>:
     240:	80 20 aa 35 95 2a 3f 3f 06 20 38 20 00 27 01 38     . .5.*??. 8 .'.8

00000250 <IC_7462>:
     250:	26 1d 00 00 5f 3f 7e 02 6e 02 5e 02 00 08           &..._?~.n.^...

0000025e <CLK_7462>:
	...

0000026e <Dont_care_7462>:
     26e:	ff 3f ff 3f ff 3f ff 3f ff 3f ff 3f ff 3f ff 3f     .?.?.?.?.?.?.?.?

0000027e <logic_7462>:
     27e:	9f 3f 20 20 83 20 9c 20 80 27 80 38 35 35 2a 2a     .?  . . .'.855**

0000028e <IC_7461>:
     28e:	25 1d 00 00 7f 3c b8 02 aa 02 9c 02 00 07           %....<........

0000029c <CLK_7461>:
	...

000002aa <Dont_care_7461>:
     2aa:	ff 3f ff 3f ff 3f ff 3f ff 3f ff 3f ff 3f           .?.?.?.?.?.?.?

000002b8 <logic_7461>:
     2b8:	bf 3f 15 34 2a 28 00 20 07 21 b8 20 00 3e           .?.4*(. .!. .>

000002c6 <IC_7460>:
     2c6:	24 1d 00 00 ff 30 e4 02 dc 02 d4 02 00 04           $....0........

000002d4 <CLK_7460>:
	...

000002dc <Dont_care_7460>:
     2dc:	ff 3f ff 3f ff 3f ff 3f                             .?.?.?.?

000002e4 <logic_7460>:
     2e4:	bf 36 95 29 2a 39 00 29                             .6.)*9.)

000002ec <IC_74597>:
     2ec:	65 23 01 00 ff fe 0e 03 04 03 fa 02 00 05           e#............

000002fa <CLK_74597>:
     2fa:	00 08 00 08 00 08 00 04 00 04                       ..........

00000304 <Dont_care_74597>:
     304:	ff fe ff ff ff ff ff ff ff ff                       ..........

0000030e <logic_74597>:
     30e:	55 b0 55 a2 55 a2 55 b3 55 b2                       U.U.U.U.U.

00000318 <IC_74595>:
     318:	63 23 01 00 80 be 42 03 34 03 26 03 00 07           c#....B.4.&...

00000326 <CLK_74595>:
     326:	00 00 00 00 00 04 00 04 00 04 00 04 00 08           ..............

00000334 <Dont_care_74595>:
     334:	80 be ff ff ff ff ff ff ff ff ff ff ff ff           ..............

00000342 <logic_74595>:
     342:	00 80 00 82 00 a2 00 a2 00 a2 00 a2 07 e2           ..............

00000350 <IC_74589>:
     350:	5d 23 01 00 ff fe 7a 03 6c 03 5e 03 00 07           ]#....z.l.^...

0000035e <CLK_74589>:
     35e:	00 08 00 00 00 00 00 04 00 04 00 04 00 04           ..............

0000036c <Dont_care_74589>:
     36c:	ff fe ff ff ff ff ff ff ff ff ff ff ff ff           ..............

0000037a <logic_74589>:
     37a:	55 b2 55 a3 55 b3 55 b2 55 b3 55 92 55 93           U.U.U.U.U.U.U.

00000388 <IC_7458>:
     388:	22 1d 00 00 5f 3f a2 03 9c 03 96 03 00 03           "..._?........

00000396 <CLK_7458>:
     396:	00 00 00 00 00 00                                   ......

0000039c <Dont_care_7458>:
     39c:	ff 3f ff 3f ff 3f                                   .?.?.?

000003a2 <logic_7458>:
     3a2:	bf 3f a7 38 00 20                                   .?.8. 

000003a8 <IC_7455>:
     3a8:	1f 1d 00 00 7f 3f de 03 ca 03 b6 03 00 0a           .....?........

000003b6 <CLK_7455>:
	...

000003ca <Dont_care_7455>:
     3ca:	ff 3f ff 3f ff 3f ff 3f ff 3f ff 3f ff 3f ff 3f     .?.?.?.?.?.?.?.?
     3da:	ff 3f ff 3f                                         .?.?

000003de <logic_7455>:
     3de:	0f 21 00 3f 81 3b 82 39 83 37 84 35 85 33 86 31     .!.?.;.9.7.5.3.1
     3ee:	87 2f 88 2d                                         ./.-

000003f2 <IC_7451>:
     3f2:	1b 1d 00 00 5f 3f 28 04 14 04 00 04 00 0a           ...._?(.......

00000400 <CLK_7451>:
	...

00000414 <Dont_care_7451>:
     414:	ff 3f ff 3f ff 3f ff 3f ff 3f ff 3f ff 3f ff 3f     .?.?.?.?.?.?.?.?
     424:	ff 3f ff 3f                                         .?.?

00000428 <logic_7451>:
     428:	21 33 a2 32 a5 21 86 20 a8 21 30 23 98 22 ad 20     !3.2.!. .!0#.". 
     438:	33 30 9e 30                                         30.0

0000043c <IC_7450>:
     43c:	1a 1d 00 00 5f 3f 5a 04 52 04 4a 04 00 04           ...._?Z.R.J...

0000044a <CLK_7450>:
	...

00000452 <Dont_care_7450>:
     452:	ff 3f ff 3f ff 3f ff 3f                             .?.?.?.?

0000045a <logic_7450>:
     45a:	a0 28 1f 3b ab 29 19 38                             .(.;.).8

00000462 <IC_7447>:
     462:	17 1d 00 00 f7 80 98 04 84 04 70 04 00 0a           ..........p...

00000470 <CLK_7447>:
	...

00000484 <Dont_care_7447>:
     484:	ff ff ff ff ff ff ff ff ff ff ff ff ff ff ff ff     ................
     494:	ff ff ff ff                                         ....

00000498 <logic_7447>:
     498:	1c a0 4c f3 1d c4 4d c1 1e 93 4e 89 1f 98 4f e3     ..L...M...N...O.
     4a8:	3c 80 6c 83                                         <.l.

000004ac <IC_7446>:
     4ac:	16 1d 00 00 f7 80 e2 04 ce 04 ba 04 00 0a           ..............

000004ba <CLK_7446>:
	...

000004ce <Dont_care_7446>:
     4ce:	ff ff ff ff ff ff ff ff ff ff ff ff ff ff ff ff     ................
     4de:	ff ff ff ff                                         ....

000004e2 <logic_7446>:
     4e2:	1c a0 4c f3 1d c4 4d c1 1e 93 4e 89 1f 98 4f e3     ..L...M...N...O.
     4f2:	3c 80 6c 83                                         <.l.

000004f6 <IC_7442>:
     4f6:	12 1d 00 00 80 f8 2c 05 18 05 04 05 00 0a           ......,.......

00000504 <CLK_7442>:
	...

00000518 <Dont_care_7442>:
     518:	ff ff ff ff ff ff ff ff ff ff ff ff ff ff ff ff     ................
     528:	ff ff ff ff                                         ....

0000052c <logic_7442>:
     52c:	7e 87 7d c7 7b a7 77 e7 6f 97 5f d7 3f b7 7f f6     ~.}.{.w.o._.?...
     53c:	7f 8d 7f cb                                         ....

00000540 <IC_7440>:
     540:	10 1d 00 00 5f 3f 72 05 60 05 4e 05 00 09           ...._?r.`.N...

0000054e <CLK_7440>:
	...

00000560 <Dont_care_7440>:
     560:	ff 3f ff 3f ff 3f ff 3f ff 3f ff 3f ff 3f ff 3f     .?.?.?.?.?.?.?.?
     570:	ff 3f                                               .?

00000572 <logic_7440>:
     572:	a0 20 a1 21 a2 22 a3 23 a8 28 a9 29 aa 2a ab 2b     . .!.".#.(.).*.+
     582:	1f 3f                                               .?

00000584 <IC_74393>:
     584:	99 22 01 00 43 38 ce 05 b0 05 92 05 00 0f           ."..C8........

00000592 <CLK_74393>:
	...

000005b0 <Dont_care_74393>:
     5b0:	43 38 43 38 43 38 ff 3f ff 3f ff 3f ff 3f ff 3f     C8C8C8.?.?.?.?.?
     5c0:	ff 3f ff 3f ff 3f ff 3f ff 3f ff 3f ff 3f           .?.?.?.?.?.?.?

000005ce <logic_74393>:
     5ce:	00 20 00 20 00 20 03 38 01 30 04 24 05 34 08 22     . . . .8.0.$.4."
     5de:	09 32 0c 26 0d 36 10 21 11 31 14 25 15 35           .2.&.6.!.1.%.5

000005ec <IC_74390>:
     5ec:	96 22 01 00 8b e8 2a 06 12 06 fa 05 00 0c           ."....*.......

000005fa <CLK_74390>:
     5fa:	00 00 00 00 01 40 01 40 01 40 01 40 01 40 01 40     .....@.@.@.@.@.@
     60a:	01 40 01 40 01 40 01 40                             .@.@.@.@

00000612 <Dont_care_74390>:
     612:	8b e8 ff ff ff ff ff ff ff ff ff ff ff ff ff ff     ................
     622:	ff ff ff ff ff ff ff ff                             ........

0000062a <logic_74390>:
     62a:	02 a0 00 80 04 90 10 84 14 94 20 82 24 92 30 86     .......... .$.0.
     63a:	34 96 40 81 44 91 00 80                             4.@.D...

00000642 <IC_74386>:
     642:	92 22 01 00 f3 39 60 06 58 06 50 06 00 04           ."...9`.X.P...

00000650 <CLK_74386>:
	...

00000658 <Dont_care_74386>:
     658:	ff 3f ff 3f ff 3f ff 3f                             .?.?.?.?

00000660 <logic_74386>:
     660:	00 20 9d 2e 2e 37 b3 39                             . ...7.9

00000668 <IC_7438>:
     668:	0e 1d 00 00 5b 3b 86 06 7e 06 76 06 00 04           ....[;..~.v...

00000676 <CLK_7438>:
	...

0000067e <Dont_care_7438>:
     67e:	ff 3f ff 3f ff 3f ff 3f                             .?.?.?.?

00000686 <logic_7438>:
     686:	a4 24 ad 2d b6 36 1b 3b                             .$.-.6.;

0000068e <IC_74375>:
     68e:	87 22 01 00 c9 c9 ac 06 a4 06 9c 06 00 04           ."............

0000069c <CLK_74375>:
	...

000006a4 <Dont_care_74375>:
     6a4:	ff ff ff ff ff ff ff ff                             ........

000006ac <logic_74375>:
     6ac:	2a aa 5d dd 55 d5 14 94                             *.].U...

000006b4 <IC_7437>:
     6b4:	0d 1d 00 00 5b 3b d2 06 ca 06 c2 06 00 04           ....[;........

000006c2 <CLK_7437>:
	...

000006ca <Dont_care_7437>:
     6ca:	ff 3f ff 3f ff 3f ff 3f                             .?.?.?.?

000006d2 <logic_7437>:
     6d2:	a4 24 ad 2d b6 36 1b 3b                             .$.-.6.;

000006da <IC_74368>:
     6da:	80 22 01 00 ab ea f8 06 f0 06 e8 06 00 04           ."............

000006e8 <CLK_74368>:
	...

000006f0 <Dont_care_74368>:
     6f0:	ff ff ff ff ff ff ff ff                             ........

000006f8 <logic_74368>:
     6f8:	7f ff 55 95 54 95 2a aa                             ..U.T.*.

00000700 <IC_74367>:
     700:	7f 22 01 00 ab ea 22 07 18 07 0e 07 00 05           ."....".......

0000070e <CLK_74367>:
	...

00000718 <Dont_care_74367>:
     718:	ff ff ff ff ff ff ff ff ab ea                       ..........

00000722 <logic_74367>:
     722:	7f ff 00 80 7e bf 60 80 02 82                       ....~.`...

0000072c <IC_74366>:
     72c:	7e 22 01 00 ab ea 52 07 46 07 3a 07 00 06           ~"....R.F.:...

0000073a <CLK_74366>:
	...

00000746 <Dont_care_74366>:
     746:	ff ff ff ff ff ff ff ff ff ff ff ff                 ............

00000752 <logic_74366>:
     752:	55 95 54 d5 7f ff 7e ff 2a aa 54 95                 U.T...~.*.T.

0000075e <IC_74365>:
     75e:	7d 22 01 00 ab ea 8c 07 7c 07 6c 07 00 08           }"......|.l...

0000076c <CLK_74365>:
	...

0000077c <Dont_care_74365>:
     77c:	ff ff ff ff ff ff ff ff ff ff ff ff ff ff ff ff     ................

0000078c <logic_74365>:
     78c:	7f ff 7e ff 7e bf 00 80 7f bf 7e ff 55 95 54 d5     ..~.~.....~.U.T.

0000079c <IC_7432>:
     79c:	08 1d 00 00 5b 3b ba 07 b2 07 aa 07 00 04           ....[;........

000007aa <CLK_7432>:
	...

000007b2 <Dont_care_7432>:
     7b2:	ff 3f ff 3f ff 3f ff 3f                             .?.?.?.?

000007ba <logic_7432>:
     7ba:	00 20 b6 2d ad 36 bf 3f                             . .-.6.?

000007c2 <IC_7430>:
     7c2:	06 1d 00 00 7f 3f f8 07 e4 07 d0 07 00 0a           .....?........

000007d0 <CLK_7430>:
	...

000007e4 <Dont_care_7430>:
     7e4:	ff 3f ff 3f ff 3f ff 3f ff 3f ff 3f ff 3f ff 3f     .?.?.?.?.?.?.?.?
     7f4:	ff 3f ff 3f                                         .?.?

000007f8 <logic_7430>:
     7f8:	3f 2c be 2c bd 2c bb 2c b7 2c af 2c 9f 2c bf 28     ?,.,.,.,.,.,.,.(
     808:	bf 24 81 20                                         .$. 

0000080c <IC_74298>:
     80c:	3a 22 01 00 ff 87 22 08 1e 08 1a 08 00 02           :"....".......

0000081a <CLK_74298>:
     81a:	00 04 00 04                                         ....

0000081e <Dont_care_74298>:
     81e:	ff ff ff ff                                         ....

00000822 <logic_74298>:
     822:	25 d1 25 ab                                         %.%.

00000826 <IC_74294>:
     826:	36 22 01 00 9b e4 58 08 46 08 34 08 00 09           6"....X.F.4...

00000834 <CLK_74294>:
     834:	08 00 08 00 08 00 08 00 08 00 08 00 08 00 08 00     ................
     844:	08 00                                               ..

00000846 <Dont_care_74294>:
     846:	9b e4 df e4 df e4 df e4 df e4 df e4 df e4 df e4     ................
     856:	df e4                                               ..

00000858 <logic_74294>:
     858:	01 80 01 84 01 84 41 84 41 84 01 84 01 84 41 84     ......A.A.....A.
     868:	41 84                                               A.

0000086a <IC_74293>:
     86a:	35 22 01 00 67 3e a8 08 90 08 78 08 00 0c           5"..g>....x...

00000878 <CLK_74293>:
	...

00000890 <Dont_care_74293>:
     890:	ff 3f ff 3f ff 3f ff 3f ff 3f ff 3f ff 3f ff 3f     .?.?.?.?.?.?.?.?
     8a0:	ff 3f ff 3f ff 3f ff 3f                             .?.?.?.?

000008a8 <logic_74293>:
     8a8:	00 3e 00 26 00 25 00 27 10 23 10 27 08 23 08 27     .>.&.%.'.#.'.#.'
     8b8:	18 23 18 27 80 23 80 27                             .#.'.#.'

000008c0 <IC_74292>:
     8c0:	34 22 01 00 9b ef e6 08 da 08 ce 08 00 06           4"............

000008ce <CLK_74292>:
     8ce:	00 00 08 00 08 00 08 00 08 00 08 00                 ............

000008da <Dont_care_74292>:
     8da:	9b ef ff ff ff ff ff ff ff ff ff ff                 ............

000008e6 <logic_74292>:
     8e6:	01 80 01 84 01 84 41 84 41 84 01 84                 ......A.A...

000008f2 <IC_74283>:
     8f2:	2b 22 01 00 f6 ed 18 09 0c 09 00 09 00 06           +"............

00000900 <CLK_74283>:
	...

0000090c <Dont_care_74283>:
     90c:	ff ff ff ff ff ff ff ff ff ff ff ff                 ............

00000918 <logic_74283>:
     918:	00 80 48 80 7f ff 2d ba 31 e2 4e 9d                 ..H...-.1.N.

00000924 <IC_74280>:
     924:	28 22 01 00 cf 3f 52 09 42 09 32 09 00 08           ("...?R.B.2...

00000932 <CLK_74280>:
	...

00000942 <Dont_care_74280>:
     942:	ff 3f ff 3f ff 3f ff 3f ff 3f ff 3f ff 3f ff 3f     .?.?.?.?.?.?.?.?

00000952 <logic_74280>:
     952:	29 35 92 2a ab 3f 10 20 ab 30 20 3f 23 33 98 26     )5.*.?. .0 ?#3.&

00000962 <IC_7428>:
     962:	04 1d 00 00 f6 2d 80 09 78 09 70 09 00 04           .....-..x.p...

00000970 <CLK_7428>:
	...

00000978 <Dont_care_7428>:
     978:	ff 3f ff 3f ff 3f ff 3f                             .?.?.?.?

00000980 <logic_7428>:
     980:	09 32 92 24 24 29 b6 2d                             .2.$$).-

00000988 <IC_7427>:
     988:	03 1d 00 00 5f 37 b6 09 a6 09 96 09 00 08           ...._7........

00000996 <CLK_7427>:
	...

000009a6 <Dont_care_7427>:
     9a6:	ff 3f ff 3f ff 3f ff 3f ff 3f ff 3f ff 3f ff 3f     .?.?.?.?.?.?.?.?

000009b6 <logic_7427>:
     9b6:	a0 28 04 31 09 22 0d 33 12 24 15 35 1b 26 1f 37     .(.1.".3.$.5.&.7

000009c6 <IC_74266>:
     9c6:	1a 22 01 00 f3 39 e4 09 dc 09 d4 09 00 04           ."...9........

000009d4 <CLK_74266>:
	...

000009dc <Dont_care_74266>:
     9dc:	ff 3f ff 3f ff 3f ff 3f                             .?.?.?.?

000009e4 <logic_74266>:
     9e4:	0c 26 91 28 22 31 bf 3f                             .&.("1.?

000009ec <IC_74260>:
     9ec:	14 22 01 00 cf 3f 22 0a 0e 0a fa 09 00 0a           ."...?".......

000009fa <CLK_74260>:
	...

00000a0e <Dont_care_74260>:
     a0e:	ff 3f ff 3f ff 3f ff 3f ff 3f ff 3f ff 3f ff 3f     .?.?.?.?.?.?.?.?
     a1e:	ff 3f ff 3f                                         .?.?

00000a22 <logic_74260>:
     a22:	30 20 85 32 0a 2d 8b 3d 04 2e 8f 3f 81 20 07 37     0 .2.-.=...?. .7
     a32:	86 2b 8d 39                                         .+.9

00000a36 <IC_7426>:
     a36:	02 1d 00 00 5b 3b 54 0a 4c 0a 44 0a 00 04           ....[;T.L.D...

00000a44 <CLK_7426>:
	...

00000a4c <Dont_care_7426>:
     a4c:	ff 3f ff 3f ff 3f ff 3f                             .?.?.?.?

00000a54 <logic_7426>:
     a54:	a4 24 ad 36 b6 2d 1b 3b                             .$.6.-.;

00000a5c <IC_74259>:
     a5c:	13 22 01 00 87 f0 8a 0a 7a 0a 6a 0a 00 08           ."......z.j...

00000a6a <CLK_74259>:
	...

00000a7a <Dont_care_74259>:
     a7a:	ff ff ff ff ff ff ff ff ff ff ff ff ff ff ff ff     ................

00000a8a <logic_74259>:
     a8a:	01 a0 02 b0 04 b0 08 90 11 90 22 90 43 90 04 91     ..........".C...

00000a9a <IC_74258>:
     a9a:	12 22 01 00 b7 f6 d0 0a bc 0a a8 0a 00 0a           ."............

00000aa8 <CLK_74258>:
	...

00000abc <Dont_care_74258>:
     abc:	ff ff ff ff ff ff ff ff ff ff ff ff ff ff ff ff     ................
     acc:	ff ff ff ff                                         ....

00000ad0 <logic_74258>:
     ad0:	48 c9 7f ff 48 89 6c 9b 12 a4 36 b6 49 89 5b ad     H...H.l...6.I.[.
     ae0:	25 92 37 b6                                         %.7.

00000ae4 <IC_74257>:
     ae4:	11 22 01 00 b7 f6 1a 0b 06 0b f2 0a 00 0a           ."............

00000af2 <CLK_74257>:
	...

00000b06 <Dont_care_74257>:
     b06:	ff ff ff ff ff ff ff ff ff ff ff ff ff ff ff ff     ................
     b16:	ff ff ff ff                                         ....

00000b1a <logic_74257>:
     b1a:	48 c9 7f ff 00 80 24 92 5a ad 7e bf 01 80 13 a4     H.....$.Z.~.....
     b2a:	6d 9b 7f bf                                         m...

00000b2e <IC_74253>:
     b2e:	0d 22 01 00 bf fe 5c 0b 4c 0b 3c 0b 00 08           ."....\.L.<...

00000b3c <CLK_74253>:
	...

00000b4c <Dont_care_74253>:
     b4c:	ff ff ff ff ff ff ff ff ff ff ff ff ff ff ff ff     ................

00000b5c <logic_74253>:
     b5c:	41 c1 7f ff 00 80 60 83 00 a0 50 a5 02 80 4a 89     A.....`...P...J.

00000b6c <IC_74251>:
     b6c:	0b 22 01 00 cf ff 9a 0b 8a 0b 7a 0b 00 08           ."........z...

00000b7a <CLK_74251>:
	...

00000b8a <Dont_care_74251>:
     b8a:	ff ff ff ff ff ff ff ff ff ff ff ff ff ff ff ff     ................

00000b9a <logic_74251>:
     b9a:	25 a8 15 d4 25 d2 15 d6 15 d1 25 d5 15 d3 25 d7     %...%.....%...%.

00000baa <IC_7425>:
     baa:	01 1d 00 00 5f 3f f8 0b d8 0b b8 0b 00 10           ...._?........

00000bb8 <CLK_7425>:
	...

00000bd8 <Dont_care_7425>:
     bd8:	ff 3f ff 3f ff 3f ff 3f ff 3f ff 3f ff 3f ff 3f     .?.?.?.?.?.?.?.?
     be8:	ff 3f ff 3f ff 3f ff 3f ff 3f ff 3f ff 3f ff 3f     .?.?.?.?.?.?.?.?

00000bf8 <logic_7425>:
     bf8:	05 25 06 26 07 27 0c 2c 0d 2d 0e 2e 0f 2f 14 34     .%.&.'.,.-.../.4
     c08:	15 35 16 36 17 37 1c 3c 1d 3d 1e 3e 1f 3f a4 24     .5.6.7.<.=.>.?.$

00000c18 <IC_74243>:
     c18:	03 22 01 00 c3 3f 36 0c 2e 0c 26 0c 00 04           ."...?6...&...

00000c26 <CLK_74243>:
	...

00000c2e <Dont_care_74243>:
     c2e:	ff 3f ff 3f ff 3f ff 3f                             .?.?.?.?

00000c36 <logic_74243>:
     c36:	bd 37 01 30 bc 27 00 20                             .7.0.'. 

00000c3e <IC_74242>:
     c3e:	02 22 01 00 c3 3f 5c 0c 54 0c 4c 0c 00 04           ."...?\.T.L...

00000c4c <CLK_74242>:
	...

00000c54 <Dont_care_74242>:
     c54:	ff 3f ff 3f ff 3f ff 3f                             .?.?.?.?

00000c5c <logic_74242>:
     c5c:	3d 30 81 37 80 27 3c 20                             =0.7.'< 

00000c64 <IC_74237>:
     c64:	fd 21 01 00 bf 80 9a 0c 86 0c 72 0c 00 0a           .!........r...

00000c72 <CLK_74237>:
	...

00000c86 <Dont_care_74237>:
     c86:	bf 80 ff ff ff ff ff ff ff ff ff ff ff ff ff ff     ................
     c96:	ff ff ff ff                                         ....

00000c9a <logic_74237>:
     c9a:	10 80 18 80 20 c0 21 a0 22 90 23 88 24 84 25 82     .... .!.".#.$.%.
     caa:	26 81 67 80                                         &.g.

00000cae <IC_7422>:
     cae:	fe 1c 00 00 5f 3f fc 0c dc 0c bc 0c 00 10           ...._?........

00000cbc <CLK_7422>:
	...

00000cdc <Dont_care_7422>:
     cdc:	ff 3f ff 3f ff 3f ff 3f ff 3f ff 3f ff 3f ff 3f     .?.?.?.?.?.?.?.?
     cec:	ff 3f ff 3f ff 3f ff 3f ff 3f ff 3f ff 3f ff 3f     .?.?.?.?.?.?.?.?

00000cfc <logic_7422>:
     cfc:	a0 20 a1 21 a2 22 a3 23 a8 28 a9 29 aa 2a ab 2b     . .!.".#.(.).*.+
     d0c:	b0 30 b1 31 b2 32 b3 33 b8 38 b9 39 ba 3a 1b 3b     .0.1.2.3.8.9.:.;

00000d1c <IC_7421>:
     d1c:	fd 1c 00 00 5b 3b 3a 0d 32 0d 2a 0d 00 04           ....[;:.2.*...

00000d2a <CLK_7421>:
	...

00000d32 <Dont_care_7421>:
     d32:	fb 3b fb 3b fb 3b fb 3b                             .;.;.;.;

00000d3a <logic_7421>:
     d3a:	bb 3b 12 32 09 29 00 20                             .;.2.). 

00000d42 <IC_7420>:
     d42:	fc 1c 00 00 5f 3f 74 0d 62 0d 50 0d 00 09           ...._?t.b.P...

00000d50 <CLK_7420>:
	...

00000d62 <Dont_care_7420>:
     d62:	ff 3f ff 3f ff 3f ff 3f ff 3f ff 3f ff 3f ff 3f     .?.?.?.?.?.?.?.?
     d72:	ff 3f                                               .?

00000d74 <logic_7420>:
     d74:	a0 20 a1 21 a2 22 a3 23 a8 28 a9 29 aa 2a ab 2b     . .!.".#.(.).*.+
     d84:	1f 3f                                               .?

00000d86 <IC_74195>:
     d86:	d3 21 01 00 ff 83 b0 0d a2 0d 94 0d 00 07           .!............

00000d94 <CLK_74195>:
     d94:	00 02 00 02 00 02 00 02 00 02 00 02 00 02           ..............

00000da2 <Dont_care_74195>:
     da2:	ff ff ff ff ff ff ff ff ff ff ff ff ff ff           ..............

00000db0 <logic_74195>:
     db0:	00 84 01 84 01 85 05 85 01 85 07 c5 03 a5           ..............

00000dbe <IC_74194>:
     dbe:	d2 21 01 00 ff 87 28 0e fa 0d cc 0d 00 17           .!....(.......

00000dcc <CLK_74194>:
     dcc:	00 04 00 04 00 04 00 04 00 04 00 04 00 04 00 04     ................
     ddc:	00 04 00 04 00 04 00 04 00 04 00 04 00 04 00 04     ................
     dec:	00 04 00 04 00 04 00 04 00 04 00 04 00 04           ..............

00000dfa <Dont_care_74194>:
     dfa:	ff ff ff ff ff ff ff ff ff ff ff ff ff ff ff ff     ................
     e0a:	ff ff ff ff ff ff ff ff ff ff ff ff ff ff ff ff     ................
     e1a:	ff ff ff ff ff ff ff ff ff ff ff ff ff ff           ..............

00000e28 <logic_74194>:
     e28:	00 80 7e 83 01 80 7f fb 3d fb 43 83 3f c1 43 e1     ..~.....=.C.?.C.
     e38:	43 f1 43 f9 01 b9 7d 99 41 ba 7f fa 01 f2 3f e2     C.C...}.A.....?.
     e48:	01 e0 7f e0 7f ca 7f 9a 7f ba 7f fa 7e 83           ............~.

00000e56 <IC_74193>:
     e56:	d1 21 01 00 99 e7 e0 0e a2 0e 64 0e 00 1f           .!........d...

00000e64 <CLK_74193>:
     e64:	00 00 00 00 00 00 08 00 08 00 08 00 08 00 08 00     ................
     e74:	08 00 08 00 08 00 08 00 08 00 08 00 08 00 08 00     ................
     e84:	08 00 00 00 00 00 00 00 00 00 00 00 10 00 10 00     ................
     e94:	10 00 10 00 10 00 10 00 10 00 10 00 00 20           ............. 

00000ea2 <Dont_care_74193>:
     ea2:	ff ff ff ff ff ff ff ff ff ff ff ff ff ff ff ff     ................
     eb2:	ff ff ff ff ff ff ff ff ff ff ff ff ff ff ff ff     ................
     ec2:	ff ff ff ff ff ff ff ff ff ff ff ff ff ff ff ff     ................
     ed2:	ff ff ff ff ff ff ff ff ff ff ff ff ff ff           ..............

00000ee0 <logic_74193>:
     ee0:	5b 99 3c da 7f db 73 df 75 df 71 df 57 df 53 df     [.<...s.u.q.W.S.
     ef0:	55 df 51 df 37 df 33 df 35 df 31 df 17 df 13 df     U.Q.7.3.5.1.....
     f00:	15 df 19 df 11 cf 7f df 6f d7 19 df 0d df 0b df     ........o.......
     f10:	0f df 29 df 2d df 2b df 2f df 49 df 19 df           ..).-.+./.I...

00000f1e <IC_74192>:
     f1e:	d0 21 01 00 99 ff 48 0f 3a 0f 2c 0f 00 07           .!....H.:.,...

00000f2c <CLK_74192>:
	...

00000f3a <Dont_care_74192>:
     f3a:	ff ff ff ff ff ff ff ff ff ff ff ff ff ff           ..............

00000f48 <logic_74192>:
     f48:	18 bd 18 9d 58 99 58 9d 48 9d 5c 9d 4c 95           ....X.X.H.\.L.

00000f56 <IC_74191>:
     f56:	cf 21 01 00 99 e7 88 0f 76 0f 64 0f 00 09           .!......v.d...

00000f64 <CLK_74191>:
     f64:	00 20 00 20 00 20 00 20 00 20 00 20 00 20 00 20     . . . . . . . . 
     f74:	00 20                                               . 

00000f76 <Dont_care_74191>:
     f76:	ff ff ff ff ff ff ff ff ff ff ff ff ff ff ff ff     ................
     f86:	ff ff                                               ..

00000f88 <logic_74191>:
     f88:	00 90 08 94 04 94 02 94 06 94 20 94 16 94 12 94     .......... .....
     f98:	14 94                                               ..

00000f9a <IC_74190>:
     f9a:	ce 21 01 00 99 e7 cc 0f ba 0f a8 0f 00 09           .!............

00000fa8 <CLK_74190>:
     fa8:	00 20 00 20 00 20 00 20 00 20 00 20 00 20 00 20     . . . . . . . . 
     fb8:	00 20                                               . 

00000fba <Dont_care_74190>:
     fba:	ff ff ff ff ff ff ff ff ff ff ff ff ff ff ff ff     ................
     fca:	ff ff                                               ..

00000fcc <logic_74190>:
     fcc:	00 90 08 94 04 94 02 94 06 94 20 94 16 94 12 94     .......... .....
     fdc:	14 94                                               ..

00000fde <IC_74182>:
     fde:	c6 21 01 00 bf f0 f4 0f f0 0f ec 0f 00 02           .!............

00000fec <CLK_74182>:
     fec:	00 00 00 00                                         ....

00000ff0 <Dont_care_74182>:
     ff0:	ff ff ff ff                                         ....

00000ff4 <logic_74182>:
     ff4:	73 9b 15 a2                                         s...

00000ff8 <IC_7418>:
     ff8:	fa 1c 00 00 5f 3f 2a 10 18 10 06 10 00 09           ...._?*.......

00001006 <CLK_7418>:
	...

00001018 <Dont_care_7418>:
    1018:	ff 3f ff 3f ff 3f ff 3f ff 3f ff 3f ff 3f ff 3f     .?.?.?.?.?.?.?.?
    1028:	ff 3f                                               .?

0000102a <logic_7418>:
    102a:	a0 20 a1 21 a2 22 a3 23 a8 28 a9 29 aa 2a ab 2b     . .!.".#.(.).*.+
    103a:	1f 3f                                               .?

0000103c <IC_74175>:
    103c:	bf 21 01 00 99 99 5a 10 52 10 4a 10 00 04           .!....Z.R.J...

0000104a <CLK_74175>:
    104a:	00 01 00 01 00 01 00 01                             ........

00001052 <Dont_care_74175>:
    1052:	ff ff ff ff ff ff ff ff                             ........

0000105a <logic_74175>:
    105a:	24 a4 3c bc 5b da 25 a4                             $.<.[.%.

00001062 <IC_74174>:
    1062:	be 21 01 00 ad b5 88 10 7c 10 70 10 00 06           .!......|.p...

00001070 <CLK_74174>:
    1070:	00 01 00 01 00 01 00 01 00 01 00 01                 ............

0000107c <Dont_care_74174>:
    107c:	ff ff ff ff ff ff ff ff ff ff ff ff                 ............

00001088 <logic_74174>:
    1088:	00 80 2c b4 67 98 19 e6 7f fe 2c b4                 ..,.g.....,.

00001094 <IC_74173>:
    1094:	bd 21 01 00 c3 ff de 10 c0 10 a2 10 00 0f           .!............

000010a2 <CLK_74173>:
    10a2:	40 00 40 00 40 00 40 00 40 00 40 00 40 00 40 00     @.@.@.@.@.@.@.@.
    10b2:	40 00 40 00 40 00 40 00 40 00 40 00 40 00           @.@.@.@.@.@.@.

000010c0 <Dont_care_74173>:
    10c0:	ff ff ff ff ff ff ff ff ff ff ff ff ff ff ff ff     ................
    10d0:	ff ff ff ff ff ff ff ff ff ff ff ff ff ff           ..............

000010de <logic_74173>:
    10de:	00 c0 00 ff 28 94 28 a9 28 aa 28 ab 14 a8 14 95     ....(.(.(.(.....
    10ee:	14 96 14 97 28 94 30 8c 00 ff 0c b0 00 ff           ....(.0.......

000010fc <IC_7417>:
    10fc:	f9 1c 00 00 55 35 12 11 0e 11 0a 11 00 02           ....U5........

0000110a <CLK_7417>:
    110a:	00 00 00 00                                         ....

0000110e <Dont_care_7417>:
    110e:	ff 3f ff 3f                                         .?.?

00001112 <logic_7417>:
    1112:	bf 3f 00 20                                         .?. 

00001116 <IC_74166>:
    1116:	b6 21 01 00 ff ef 54 11 3c 11 24 11 00 0c           .!....T.<.$...

00001124 <CLK_74166>:
    1124:	40 00 40 00 40 00 40 00 40 00 40 00 40 00 40 00     @.@.@.@.@.@.@.@.
    1134:	40 00 40 00 40 00 40 00                             @.@.@.@.

0000113c <Dont_care_74166>:
    113c:	ff ff ff ff ff ff ff ff ff ff ff ff ff ff ff ff     ................
    114c:	ff ff ff ff ff ff ff ff                             ........

00001154 <logic_74166>:
    1154:	00 80 1f ee 00 81 1f ef 00 81 1f bf 01 d1 1f ff     ................
    1164:	00 d1 1e ff 21 d1 3e bf                             ....!.>.

0000116c <IC_74165>:
    116c:	b5 21 01 00 bf fe 92 11 86 11 7a 11 00 06           .!........z...

0000117a <CLK_74165>:
    117a:	02 00 02 00 02 00 02 00 02 00 02 00                 ............

00001186 <Dont_care_74165>:
    1186:	ff ff ff ff ff ff ff ff ff ff ff ff                 ............

00001192 <logic_74165>:
    1192:	40 80 48 80 49 80 51 82 21 83 41 82                 @.H.I.Q.!.A.

0000119e <IC_74164>:
    119e:	b4 21 01 00 c3 21 cc 11 bc 11 ac 11 00 08           .!...!........

000011ac <CLK_74164>:
    11ac:	80 00 80 00 80 00 80 00 80 00 80 00 80 00 80 00     ................

000011bc <Dont_care_74164>:
    11bc:	ff 3f ff 3f ff 3f ff 3f ff 3f ff 3f ff 3f ff 3f     .?.?.?.?.?.?.?.?

000011cc <logic_74164>:
    11cc:	00 20 03 20 00 21 07 21 0f 21 18 21 32 21 21 23     . . .!.!.!.!2!!#

000011dc <IC_74163>:
    11dc:	b3 21 01 00 ff 83 2e 12 0c 12 ea 11 00 11           .!............

000011ea <CLK_74163>:
    11ea:	00 00 00 00 02 00 02 00 02 00 02 00 02 00 02 00     ................
    11fa:	02 00 02 00 02 00 02 00 02 00 00 00 00 00 00 00     ................
	...

0000120c <Dont_care_74163>:
    120c:	ff 83 ff 83 ff ff ff ff ff ff ff ff ff ff ff ff     ................
    121c:	ff ff ff ff ff ff ff ff ff ff ff ff ff ff ff ff     ................
    122c:	ff ff                                               ..

0000122e <logic_74163>:
    122e:	02 80 01 80 00 80 04 83 71 8e 41 af 41 9f 41 ff     ........q.A.A.A.
    123e:	41 83 41 a3 41 93 41 b3 41 8b 43 ab 42 ab 40 ab     A.A.A.A.A.C.B.@.
    124e:	42 83                                               B.

00001250 <IC_74162>:
    1250:	b2 21 01 00 ff 83 a6 12 82 12 5e 12 00 12           .!........^...

0000125e <CLK_74162>:
    125e:	00 00 02 00 02 00 02 00 02 00 02 00 02 00 02 00     ................
    126e:	02 00 02 00 02 00 02 00 02 00 00 00 00 00 00 00     ................
    127e:	00 00 02 00                                         ....

00001282 <Dont_care_74162>:
    1282:	ff 83 ff ff ff ff ff ff ff ff ff ff ff ff ff ff     ................
    1292:	ff ff ff ff ff ff ff ff ff ff ff ff ff ff ff ff     ................
    12a2:	ff ff ff 83                                         ....

000012a6 <logic_74162>:
    12a6:	02 80 00 80 00 80 04 83 41 81 01 83 00 83 1d b8     ........A.......
    12b6:	71 87 41 e7 41 83 41 a3 41 93 43 b3 42 b3 40 b3     q.A.A.A.A.C.B.@.
    12c6:	42 83 41 83                                         B.A.

000012ca <IC_74161>:
    12ca:	b1 21 01 00 ff 83 18 13 f8 12 d8 12 00 10           .!............

000012d8 <CLK_74161>:
    12d8:	00 00 00 00 02 00 02 00 02 00 02 00 02 00 02 00     ................
    12e8:	02 00 02 00 02 00 02 00 00 00 00 00 00 00 02 00     ................

000012f8 <Dont_care_74161>:
    12f8:	ff ff ff ff ff ff ff ff ff ff ff ff ff ff ff ff     ................
    1308:	ff ff ff ff ff ff ff ff ff ff ff ff ff ff ff 83     ................

00001318 <logic_74161>:
    1318:	02 80 42 83 41 81 01 83 01 81 01 80 71 8e 41 af     ..B.A.......q.A.
    1328:	41 9f 41 ff 41 83 41 a3 43 93 41 93 40 83 41 83     A.A.A.A.C.A.@.A.

00001338 <IC_74160>:
    1338:	b0 21 01 00 ff 83 7e 13 62 13 46 13 00 0e           .!....~.b.F...

00001346 <CLK_74160>:
    1346:	02 00 02 00 02 00 02 00 02 00 02 00 02 00 02 00     ................
    1356:	02 00 02 00 02 00 00 00 00 00 00 00                 ............

00001362 <Dont_care_74160>:
    1362:	ff ff ff ff ff ff ff ff ff ff ff ff ff ff ff ff     ................
    1372:	ff ff ff ff ff ff ff ff ff ff ff ff                 ............

0000137e <logic_74160>:
    137e:	00 80 40 83 5d ba 41 87 5d e7 41 83 41 a3 41 93     ..@.].A.].A.A.A.
    138e:	41 b3 41 8b 41 ab 43 9b 41 9b 40 83                 A.A.A.C.A.@.

0000139a <IC_7416>:
    139a:	f8 1c 00 00 55 35 b0 13 ac 13 a8 13 00 02           ....U5........

000013a8 <CLK_7416>:
    13a8:	00 00 00 00                                         ....

000013ac <Dont_care_7416>:
    13ac:	ff 3f ff 3f                                         .?.?

000013b0 <logic_7416>:
    13b0:	aa 2a 15 35                                         .*.5

000013b4 <IC_74158>:
    13b4:	ae 21 01 00 b7 f6 ea 13 d6 13 c2 13 00 0a           .!............

000013c2 <CLK_74158>:
	...

000013d6 <Dont_care_74158>:
    13d6:	ff ff ff ff ff ff ff ff ff ff ff ff ff ff ff ff     ................
    13e6:	ff ff ff ff                                         ....

000013ea <logic_74158>:
    13ea:	5a db 6d ed 48 89 6c 9b 12 a4 36 b6 49 89 5b ad     Z.m.H.l...6.I.[.
    13fa:	25 92 37 b6                                         %.7.

000013fe <IC_74157>:
    13fe:	ad 21 01 00 b7 f6 34 14 20 14 0c 14 00 0a           .!....4. .....

0000140c <CLK_74157>:
	...

00001420 <Dont_care_74157>:
    1420:	ff ff ff ff ff ff ff ff ff ff ff ff ff ff ff ff     ................
    1430:	ff ff ff ff                                         ....

00001434 <logic_74157>:
    1434:	7f bf 25 d2 00 80 24 92 5a ad 7e bf 01 80 13 a4     ..%...$.Z.~.....
    1444:	6d 9b 12 e4                                         m...

00001448 <IC_74153>:
    1448:	a9 21 01 00 bf fe 9e 14 7a 14 56 14 00 12           .!......z.V...

00001456 <CLK_74153>:
	...

0000147a <Dont_care_74153>:
    147a:	ff ff ff ff ff ff ff ff ff ff ff ff ff ff ff ff     ................
    148a:	ff ff ff ff ff ff ff ff ff ff ff ff ff ff ff ff     ................
    149a:	ff ff ff ff                                         ....

0000149e <logic_74153>:
    149e:	29 ea 17 d4 14 ca 68 d4 28 ea 56 f4 16 ca 6a d4     ).....h.(.V...j.
    14ae:	2a ea 56 f4 29 94 15 8b 29 aa 15 b5 2b 92 17 8d     *.V.)...)...+...
    14be:	2b aa 17 b5                                         +...

000014c2 <IC_74151>:
    14c2:	a7 21 01 00 cf ff 18 15 f4 14 d0 14 00 12           .!............

000014d0 <CLK_74151>:
	...

000014f4 <Dont_care_74151>:
    14f4:	ff ff ff ff ff ff ff ff ff ff ff ff ff ff ff ff     ................
    1504:	ff ff ff ff ff ff ff ff ff ff ff ff ff ff ff ff     ................
    1514:	ff ff ff ff                                         ....

00001518 <logic_74151>:
    1518:	6a d5 65 aa 27 f8 18 80 2b fc 14 84 2d fa 12 82     j.e.'...+...-...
    1528:	2e fe 11 86 2f b9 10 c1 2f dd 10 a5 2f eb 10 93     ..../.../.../...
    1538:	2f f7 10 8f                                         /...

0000153c <IC_7415>:
    153c:	f7 1c 00 00 5f 37 6a 15 5a 15 4a 15 00 08           ...._7j.Z.J...

0000154a <CLK_7415>:
	...

0000155a <Dont_care_7415>:
    155a:	ff 3f ff 3f ff 3f ff 3f ff 3f ff 3f ff 3f ff 3f     .?.?.?.?.?.?.?.?

0000156a <logic_7415>:
    156a:	00 20 04 31 09 22 0d 33 12 24 16 35 1b 26 bf 3f     . .1.".3.$.5.&.?

0000157a <IC_74148>:
    157a:	a4 21 01 00 9f 9e b0 15 9c 15 88 15 00 0a           .!............

00001588 <CLK_74148>:
	...

0000159c <Dont_care_74148>:
    159c:	ff ff ff ff ff ff ff ff ff ff ff ff ff ff ff ff     ................
    15ac:	ff ff ff ff                                         ....

000015b0 <logic_74148>:
    15b0:	7a f5 6f bf 05 d4 0a cb 4d d4 4e cb 2f ca 2f d5     z.o.....M.N././.
    15c0:	6f da 6f dd                                         o.o.

000015c4 <IC_74147>:
    15c4:	a3 21 01 00 9f de fa 15 e6 15 d2 15 00 0a           .!............

000015d2 <CLK_74147>:
	...

000015e6 <Dont_care_74147>:
    15e6:	ff ff ff ff ff ff ff ff ff ff ff ff ff ff ff ff     ................
    15f6:	ff ff ff ff                                         ....

000015fa <logic_74147>:
    15fa:	7f bf 7f 9c 6f 9f 17 be 1b bf 5d be 5e bf 3f ae     ....o.....].^.?.
    160a:	3f b7 7f ba                                         ?...

0000160e <IC_74145>:
    160e:	a1 21 01 00 80 f8 5c 16 3c 16 1c 16 00 10           .!....\.<.....

0000161c <CLK_74145>:
	...

0000163c <Dont_care_74145>:
    163c:	ff ff ff ff ff ff ff ff ff ff ff ff ff ff ff ff     ................
    164c:	ff ff ff ff ff ff ff ff ff ff ff ff ff ff ff ff     ................

0000165c <logic_74145>:
    165c:	7e 87 7d c7 7b a7 77 e7 6f 97 5f d7 3f b7 7f f6     ~.}.{.w.o._.?...
    166c:	7f 8d 7f cb 7f af 7f ef 7f 9f 7f df 7f bf 7f ff     ................

0000167c <IC_74140>:
    167c:	9c 21 01 00 5f 3f ae 16 9c 16 8a 16 00 09           .!.._?........

0000168a <CLK_74140>:
	...

0000169c <Dont_care_74140>:
    169c:	ff 3f ff 3f ff 3f ff 3f ff 3f ff 3f ff 3f ff 3f     .?.?.?.?.?.?.?.?
    16ac:	ff 3f                                               .?

000016ae <logic_74140>:
    16ae:	a0 20 a1 21 a2 22 a3 23 a8 28 a9 29 aa 2a ab 2b     . .!.".#.(.).*.+
    16be:	1f 3f                                               .?

000016c0 <IC_7414>:
    16c0:	f6 1c 00 00 55 35 d6 16 d2 16 ce 16 00 02           ....U5........

000016ce <CLK_7414>:
    16ce:	00 00 00 00                                         ....

000016d2 <Dont_care_7414>:
    16d2:	ff 3f ff 3f                                         .?.?

000016d6 <logic_7414>:
    16d6:	aa 2a 15 35                                         .*.5

000016da <IC_74139>:
    16da:	9b 21 01 00 87 f0 00 17 f4 16 e8 16 00 06           .!............

000016e8 <CLK_74139>:
	...

000016f4 <Dont_care_74139>:
    16f4:	ff ff ff ff ff ff ff ff ff ff ff ff                 ............

00001700 <logic_74139>:
    1700:	7d ef 7b df 70 87 6a ab 5c 9d 3e be                 }.{.p.j.\.>.

0000170c <IC_74138>:
    170c:	9a 21 01 00 bf 80 4a 17 32 17 1a 17 00 0c           .!....J.2.....

0000171a <CLK_74138>:
	...

00001732 <Dont_care_74138>:
    1732:	ff ff ff ff ff ff ff ff ff ff ff ff ff ff ff ff     ................
    1742:	ff ff ff ff ff ff ff ff                             ........

0000174a <logic_74138>:
    174a:	7f ff 58 ff 5f ff 40 ff 60 bf 61 df 62 ef 63 f7     ..X._.@.`.a.b.c.
    175a:	64 fb 65 fd 66 fe 27 ff                             d.e.f.'.

00001762 <IC_74137>:
    1762:	99 21 01 00 bf 80 a0 17 88 17 70 17 00 0c           .!........p...

00001770 <CLK_74137>:
	...

00001788 <Dont_care_74137>:
    1788:	ff ff ff ff ff ff ff ff ff ff ff ff ff ff ff ff     ................
    1798:	ff ff ff ff ff ff ff ff                             ........

000017a0 <logic_74137>:
    17a0:	7f ff 50 ff 5f ff 40 ff 60 bf 61 df 62 ef 63 f7     ..P._.@.`.a.b.c.
    17b0:	64 fb 65 fd 66 fe 27 ff                             d.e.f.'.

000017b8 <IC_74136>:
    17b8:	98 21 01 00 5b 3b d6 17 ce 17 c6 17 00 04           .!..[;........

000017c6 <CLK_74136>:
	...

000017ce <Dont_care_74136>:
    17ce:	ff 3f ff 3f ff 3f ff 3f                             .?.?.?.?

000017d6 <logic_74136>:
    17d6:	00 20 ad 2d b6 36 1b 3b                             . .-.6.;

000017de <IC_74133>:
    17de:	95 21 01 00 ff fe 24 18 08 18 ec 17 00 0e           .!....$.......

000017ec <CLK_74133>:
	...

00001808 <Dont_care_74133>:
    1808:	ff ff ff ff ff ff ff ff ff ff ff ff ff ff ff ff     ................
    1818:	ff ff ff ff ff ff ff ff ff ff ff ff                 ............

00001824 <logic_74133>:
    1824:	00 81 01 81 03 81 00 8f 0f 81 1f 81 00 ff 7f 81     ................
    1834:	7f 83 7f 87 7f 8f 7f 9f 7f bf 7f fe                 ............

00001840 <IC_74132>:
    1840:	94 21 01 00 5b 3b 5e 18 56 18 4e 18 00 04           .!..[;^.V.N...

0000184e <CLK_74132>:
	...

00001856 <Dont_care_74132>:
    1856:	ff 3f ff 3f ff 3f ff 3f                             .?.?.?.?

0000185e <logic_74132>:
    185e:	a4 24 ad 2d b6 36 1b 3b                             .$.-.6.;

00001866 <IC_7413>:
    1866:	f5 1c 00 00 5f 3f 98 18 86 18 74 18 00 09           ...._?....t...

00001874 <CLK_7413>:
	...

00001886 <Dont_care_7413>:
    1886:	ff 3f ff 3f ff 3f ff 3f ff 3f ff 3f ff 3f ff 3f     .?.?.?.?.?.?.?.?
    1896:	ff 3f                                               .?

00001898 <logic_7413>:
    1898:	a0 20 a1 21 a2 22 a3 23 a8 28 a9 29 aa 2a ab 2b     . .!.".#.(.).*.+
    18a8:	1f 3f                                               .?

000018aa <IC_74126>:
    18aa:	8e 21 01 00 5b 3b c8 18 c0 18 b8 18 00 04           .!..[;........

000018b8 <CLK_74126>:
	...

000018c0 <Dont_care_74126>:
    18c0:	ff 3f ff 3f ff 3f ff 3f                             .?.?.?.?

000018c8 <logic_74126>:
    18c8:	bf 3f 09 32 a4 24 b6 2d                             .?.2.$.-

000018d0 <IC_74125>:
    18d0:	8d 21 01 00 5b 3b fe 18 ee 18 de 18 00 08           .!..[;........

000018de <CLK_74125>:
	...

000018ee <Dont_care_74125>:
    18ee:	ff 3f ff 3f ff 3f ff 3f ff 3f ff 3f ff 3f ff 3f     .?.?.?.?.?.?.?.?

000018fe <logic_74125>:
    18fe:	b6 2d 00 20 ad 36 bf 3f bd 3e af 37 af 3e bd 37     .-. .6.?.>.7.>.7

0000190e <IC_74123>:
    190e:	8b 21 01 00 87 87 34 19 28 19 1c 19 00 06           .!....4.(.....

0000191c <CLK_74123>:
	...

00001928 <Dont_care_74123>:
    1928:	ff ff ff ff ff ff ff ff ff ff ff ff                 ............

00001934 <logic_74123>:
    1934:	48 c8 4b cb 4a ca 4f cf 48 c8 4d cd                 H.K.J.O.H.M.

00001940 <IC_7412>:
    1940:	f4 1c 00 00 5f 37 6e 19 5e 19 4e 19 00 08           ...._7n.^.N...

0000194e <CLK_7412>:
	...

0000195e <Dont_care_7412>:
    195e:	ff 3f ff 3f ff 3f ff 3f ff 3f ff 3f ff 3f ff 3f     .?.?.?.?.?.?.?.?

0000196e <logic_7412>:
    196e:	a0 28 a4 39 a9 2a ad 3b b2 2c b6 3d bb 2e 1f 37     .(.9.*.;.,.=...7

0000197e <IC_74113>:
    197e:	81 21 01 00 4f 3e a4 19 98 19 8c 19 00 06           .!..O>........

0000198c <CLK_74113>:
    198c:	01 10 01 10 01 10 01 10 01 10 01 10                 ............

00001998 <Dont_care_74113>:
    1998:	ff 3f ff 3f ff 3f ff 3f ff 3f ff 3f                 .?.?.?.?.?.?

000019a4 <logic_74113>:
    19a4:	10 21 16 2d 18 23 1c 21 aa 2a 1e 2f                 .!.-.#.!.*./

000019b0 <IC_74112>:
    19b0:	80 21 01 00 8f fe de 19 ce 19 be 19 00 08           .!............

000019be <CLK_74112>:
    19be:	01 10 01 10 01 10 01 10 01 10 01 10 01 10 01 10     ................

000019ce <Dont_care_74112>:
    19ce:	ff ff ff ff ff ff ff ff ff ff ff ff ff ff ff ff     ................

000019de <logic_74112>:
    19de:	10 e1 16 ed 68 82 6e 82 68 e2 1c e7 6a ea 1e ef     ....h.n.h...j...

000019ee <IC_7411>:
    19ee:	f3 1c 00 00 5f 37 1c 1a 0c 1a fc 19 00 08           ...._7........

000019fc <CLK_7411>:
	...

00001a0c <Dont_care_7411>:
    1a0c:	ff 3f ff 3f ff 3f ff 3f ff 3f ff 3f ff 3f ff 3f     .?.?.?.?.?.?.?.?

00001a1c <logic_7411>:
    1a1c:	00 20 10 34 0a 22 05 21 0f 23 1a 36 15 35 bf 3f     . .4.".!.#.6.5.?

00001a2c <IC_74109>:
    1a2c:	7d 21 01 00 9f fc 5a 1a 4a 1a 3a 1a 00 08           }!....Z.J.:...

00001a3a <CLK_74109>:
    1a3a:	08 08 08 08 08 08 08 08 08 08 08 08 08 08 08 08     ................

00001a4a <Dont_care_74109>:
    1a4a:	ff ff ff ff ff ff ff ff ff ff ff ff ff ff ff ff     ................

00001a5a <logic_74109>:
    1a5a:	50 85 56 b5 21 c2 27 f6 51 c5 33 e6 35 d6 37 f6     P.V.!.'.Q.3.5.7.

00001a6a <IC_74107>:
    1a6a:	7b 21 01 00 c9 3f 90 1a 84 1a 78 1a 00 06           {!...?....x...

00001a78 <CLK_74107>:
    1a78:	00 09 00 09 00 09 00 09 00 09 00 09                 ............

00001a84 <Dont_care_74107>:
    1a84:	ff 3f ff 3f ff 3f ff 3f ff 3f ff 3f                 .?.?.?.?.?.?

00001a90 <logic_74107>:
    1a90:	22 20 ab 24 22 32 95 32 2a 36 9d 36                 " .$"2.2*6.6

00001a9c <IC_7410>:
    1a9c:	f2 1c 00 00 5f 37 ca 1a ba 1a aa 1a 00 08           ...._7........

00001aaa <CLK_7410>:
	...

00001aba <Dont_care_7410>:
    1aba:	ff 3f ff 3f ff 3f ff 3f ff 3f ff 3f ff 3f ff 3f     .?.?.?.?.?.?.?.?

00001aca <logic_7410>:
    1aca:	a0 28 a4 39 a9 2a ad 3b b2 2c b6 3d bb 2e 1f 37     .(.9.*.;.,.=...7

00001ada <IC_7409>:
    1ada:	f1 1c 00 00 5b 3b f8 1a f0 1a e8 1a 00 04           ....[;........

00001ae8 <CLK_7409>:
	...

00001af0 <Dont_care_7409>:
    1af0:	ff 3f ff 3f ff 3f ff 3f                             .?.?.?.?

00001af8 <logic_7409>:
    1af8:	bf 3f 09 29 12 32 00 20                             .?.).2. 

00001b00 <IC_7408>:
    1b00:	f0 1c 00 00 5b 3b 1e 1b 16 1b 0e 1b 00 04           ....[;........

00001b0e <CLK_7408>:
	...

00001b16 <Dont_care_7408>:
    1b16:	ff 3f ff 3f ff 3f ff 3f                             .?.?.?.?

00001b1e <logic_7408>:
    1b1e:	00 20 12 32 09 29 bf 3f                             . .2.).?

00001b26 <IC_7407>:
    1b26:	ef 1c 00 00 55 35 3c 1b 38 1b 34 1b 00 02           ....U5<.8.4...

00001b34 <CLK_7407>:
    1b34:	00 00 00 00                                         ....

00001b38 <Dont_care_7407>:
    1b38:	ff 3f ff 3f                                         .?.?

00001b3c <logic_7407>:
    1b3c:	bf 3f 00 20                                         .?. 

00001b40 <IC_7406>:
    1b40:	ee 1c 00 00 55 35 56 1b 52 1b 4e 1b 00 02           ....U5V.R.N...

00001b4e <CLK_7406>:
    1b4e:	00 00 00 00                                         ....

00001b52 <Dont_care_7406>:
    1b52:	ff 3f ff 3f                                         .?.?

00001b56 <logic_7406>:
    1b56:	aa 2a 15 35                                         .*.5

00001b5a <IC_7405>:
    1b5a:	ed 1c 00 00 55 35 70 1b 6c 1b 68 1b 00 02           ....U5p.l.h...

00001b68 <CLK_7405>:
    1b68:	00 00 00 00                                         ....

00001b6c <Dont_care_7405>:
    1b6c:	ff 3f ff 3f                                         .?.?

00001b70 <logic_7405>:
    1b70:	aa 2a 15 35                                         .*.5

00001b74 <IC_7404>:
    1b74:	ec 1c 00 00 55 35 8a 1b 86 1b 82 1b 00 02           ....U5........

00001b82 <CLK_7404>:
    1b82:	00 00 00 00                                         ....

00001b86 <Dont_care_7404>:
    1b86:	ff 3f ff 3f                                         .?.?

00001b8a <logic_7404>:
    1b8a:	aa 2a 15 35                                         .*.5

00001b8e <IC_7403>:
    1b8e:	eb 1c 00 00 5b 3b ac 1b a4 1b 9c 1b 00 04           ....[;........

00001b9c <CLK_7403>:
	...

00001ba4 <Dont_care_7403>:
    1ba4:	ff 3f ff 3f ff 3f ff 3f                             .?.?.?.?

00001bac <logic_7403>:
    1bac:	a4 24 ad 2d b6 36 1b 3b                             .$.-.6.;

00001bb4 <IC_7402>:
    1bb4:	ea 1c 00 00 f6 2d d2 1b ca 1b c2 1b 00 04           .....-........

00001bc2 <CLK_7402>:
	...

00001bca <Dont_care_7402>:
    1bca:	ff 3f ff 3f ff 3f ff 3f                             .?.?.?.?

00001bd2 <logic_7402>:
    1bd2:	09 32 92 24 24 29 b6 2d                             .2.$$).-

00001bda <IC_7401>:
    1bda:	e9 1c 00 00 f6 2d f8 1b f0 1b e8 1b 00 04           .....-........

00001be8 <CLK_7401>:
	...

00001bf0 <Dont_care_7401>:
    1bf0:	ff 3f ff 3f ff 3f ff 3f                             .?.?.?.?

00001bf8 <logic_7401>:
    1bf8:	09 32 9b 36 2d 3b b6 2d                             .2.6-;.-

00001c00 <IC_7400>:
    1c00:	e8 1c 00 00 5b 3b 1e 1c 16 1c 0e 1c 00 04           ....[;........

00001c0e <CLK_7400>:
	...

00001c16 <Dont_care_7400>:
    1c16:	ff 3f ff 3f ff 3f ff 3f                             .?.?.?.?

00001c1e <logic_7400>:
    1c1e:	a4 24 ad 2d b6 36 1b 3b                             .$.-.6.;

00001c26 <IC_4572>:
    1c26:	dc 11 00 00 ea ea 44 1c 3c 1c 34 1c 00 04           ......D.<.4...

00001c34 <CLK_4572>:
	...

00001c3c <Dont_care_4572>:
    1c3c:	ff ff ff ff ff ff ff ff                             ........

00001c44 <logic_4572>:
    1c44:	15 95 25 b5 4a da 6a ea                             ..%.J.j.

00001c4c <IC_4543>:
    1c4c:	bf 11 00 00 ff 80 6a 1c 62 1c 5a 1c 00 04           ......j.b.Z...

00001c5a <CLK_4543>:
	...

00001c62 <Dont_care_4543>:
    1c62:	ff ff ff ff ff ff ff ff                             ........

00001c6a <logic_4543>:
    1c6a:	09 ff 11 86 07 fd 0d 80                             ........

00001c72 <IC_4532>:
    1c72:	b4 11 00 00 9f 9e a8 1c 94 1c 80 1c 00 0a           ..............

00001c80 <CLK_4532>:
	...

00001c94 <Dont_care_4532>:
    1c94:	ff ff ff ff ff ff ff ff ff ff ff ff ff ff ff ff     ................
    1ca4:	ff ff ff ff                                         ....

00001ca8 <logic_4532>:
    1ca8:	00 80 10 c0 78 a1 74 a0 32 a1 31 a0 50 b1 50 a8     ....x.t.2.1.P.P.
    1cb8:	10 a5 10 a2                                         ....

00001cbc <IC_4529>:
    1cbc:	b1 11 00 00 ff fc da 1c d2 1c ca 1c 00 04           ..............

00001cca <CLK_4529>:
	...

00001cd2 <Dont_care_4529>:
    1cd2:	ff ff ff ff ff ff ff ff                             ........

00001cda <logic_4529>:
    1cda:	0b eb 2b e8 75 97 54 d4                             ..+.u.T.

00001ce2 <IC_4520>:
    1ce2:	a8 11 00 00 c3 c3 1c 1d 06 1d f0 1c 00 0b           ..............

00001cf0 <CLK_4520>:
    1cf0:	01 01 01 01 01 01 01 01 01 01 01 01 01 01 01 01     ................
    1d00:	01 01 01 01 01 01                                   ......

00001d06 <Dont_care_4520>:
    1d06:	c3 c3 ff ff ff ff ff ff ff ff ff ff ff ff ff ff     ................
    1d16:	ff ff ff ff ff ff                                   ......

00001d1c <logic_4520>:
    1d1c:	42 c2 06 86 0a 8a 0e 8e 12 92 16 96 1a 9a 1e 9e     B...............
    1d2c:	22 a2 26 a6 2a aa                                   ".&.*.

00001d32 <IC_4519>:
    1d32:	a7 11 00 00 ff e1 58 1d 4c 1d 40 1d 00 06           ......X.L.@...

00001d40 <CLK_4519>:
	...

00001d4c <Dont_care_4519>:
    1d4c:	ff ff ff ff ff ff ff ff ff ff ff ff                 ............

00001d58 <logic_4519>:
    1d58:	7e c0 4c ea 1a b7 35 f1 49 a9 67 af                 ~.L...5.I.g.

00001d64 <IC_4518>:
    1d64:	a6 11 00 00 c3 c3 8e 1d 80 1d 72 1d 00 07           ..........r...

00001d72 <CLK_4518>:
    1d72:	01 01 01 01 01 01 01 01 01 01 01 01 01 01           ..............

00001d80 <Dont_care_4518>:
    1d80:	c3 c3 c3 c3 ff ff ff ff ff ff ff ff c3 c3           ..............

00001d8e <logic_4518>:
    1d8e:	42 c2 00 80 42 c2 00 80 06 86 08 88 02 82           B...B.........

00001d9c <IC_4512>:
    1d9c:	a0 11 00 00 ff df f2 1d ce 1d aa 1d 00 12           ..............

00001daa <CLK_4512>:
	...

00001dce <Dont_care_4512>:
    1dce:	ff ff ff ff ff ff ff ff ff ff ff ff ff ff ff ff     ................
    1dde:	ff ff ff ff ff ff ff ff ff ff ff ff ff ff ff ff     ................
    1dee:	ff ff ff ff                                         ....

00001df2 <logic_4512>:
    1df2:	7e 81 01 a0 7d 85 02 a4 7b 89 04 a8 77 8d 08 ac     ~...}...{...w...
    1e02:	6f 91 10 b0 5f 95 20 e4 3f 99 40 b8 7f 9c 00 bd     o..._. .?.@.....
    1e12:	00 9f 7f fc                                         ....

00001e16 <IC_4511>:
    1e16:	9f 11 00 00 ff 80 38 1e 2e 1e 24 1e 00 05           ......8...$...

00001e24 <CLK_4511>:
	...

00001e2e <Dont_care_4511>:
    1e2e:	ff ff ff ff ff ff ff ff ff ff                       ..........

00001e38 <logic_4511>:
    1e38:	08 ff 4c 8c 4e f6 0c df 04 80                       ..L.N.....

00001e42 <IC_4510>:
    1e42:	9e 11 00 00 9d db 64 1e 5a 1e 50 1e 00 05           ......d.Z.P...

00001e50 <CLK_4510>:
    1e50:	00 40 00 40 00 40 00 40 00 40                       .@.@.@.@.@

00001e5a <Dont_care_4510>:
    1e5a:	ff ff ff ff ff ff ff ff ff ff                       ..........

00001e64 <logic_4510>:
    1e64:	69 b2 40 a6 60 a6 40 a4 60 a0                       i.@.`.@.`.

00001e6e <IC_4503>:
    1e6e:	97 11 00 00 ab ea 8c 1e 84 1e 7c 1e 00 04           ..........|...

00001e7c <CLK_4503>:
	...

00001e84 <Dont_care_4503>:
    1e84:	ff ff ff ff ff ff ff ff                             ........

00001e8c <logic_4503>:
    1e8c:	5d b3 77 8d 18 df 66 f4                             ].w...f.

00001e94 <IC_4098>:
    1e94:	02 10 00 00 9f fc ce 1e b8 1e a2 1e 00 0b           ..............

00001ea2 <CLK_4098>:
	...

00001eb8 <Dont_care_4098>:
    1eb8:	ff ff ff ff 9f fc 9f fc ff ff ff ff ff ff ff ff     ................
    1ec8:	ff ff ff ff ff ff                                   ......

00001ece <logic_4098>:
    1ece:	42 a1 56 b5 1e bc 1e bc 3e be 5c 9d 56 b5 5e bd     B.V.....>.\.V.^.
    1ede:	2e ba 4c 99 5e bd                                   ..L.^.

00001ee4 <IC_4094>:
    1ee4:	fe 0f 00 00 85 c0 2a 1f 0e 1f f2 1e 00 0e           ......*.......

00001ef2 <CLK_4094>:
    1ef2:	00 00 04 00 04 00 04 00 04 00 04 00 04 00 04 00     ................
    1f02:	04 00 04 00 04 00 04 00 00 00 00 00                 ............

00001f0e <Dont_care_4094>:
    1f0e:	85 c0 8f c0 9f c0 bf c0 ff c0 ff e0 ff f0 ff f8     ................
    1f1e:	ff fc ff fd ff fd ff fd ff fd ff fd                 ............

00001f2a <logic_4094>:
    1f2a:	01 c0 0b c0 11 c0 2b c0 51 c0 2b e0 51 d0 2b e8     ......+.Q.+.Q.+.
    1f3a:	51 d4 2b e8 51 d5 52 d4 2b e8 79 bc                 Q.+.Q.R.+.y.

00001f46 <IC_4093>:
    1f46:	fd 0f 00 00 f3 39 64 1f 5c 1f 54 1f 00 04           .....9d.\.T...

00001f54 <CLK_4093>:
	...

00001f5c <Dont_care_4093>:
    1f5c:	ff 3f ff 3f ff 3f ff 3f                             .?.?.?.?

00001f64 <logic_4093>:
    1f64:	0c 26 9d 2e 2e 37 b3 39                             .&...7.9

00001f6c <IC_4082>:
    1f6c:	f2 0f 00 00 fe 2f a6 1f 90 1f 7a 1f 00 0b           ...../....z...

00001f7a <CLK_4082>:
	...

00001f90 <Dont_care_4082>:
    1f90:	ff 3f ff 3f ff 3f ff 3f ff 3f ff 3f ff 3f ff 3f     .?.?.?.?.?.?.?.?
    1fa0:	ff 3f ff 3f ff 3f                                   .?.?.?

00001fa6 <logic_4082>:
    1fa6:	00 20 02 21 04 22 06 23 08 24 0a 25 0c 26 0e 27     . .!.".#.$.%.&.'
    1fb6:	90 2e 12 29 1f 3f                                   ...).?

00001fbc <IC_4081>:
    1fbc:	f1 0f 00 00 f3 39 da 1f d2 1f ca 1f 00 04           .....9........

00001fca <CLK_4081>:
	...

00001fd2 <Dont_care_4081>:
    1fd2:	ff 3f ff 3f ff 3f ff 3f                             .?.?.?.?

00001fda <logic_4081>:
    1fda:	b8 23 91 28 22 31 07 3c                             .#.("1.<

00001fe2 <IC_4078>:
    1fe2:	ee 0f 00 00 ff 2f 18 20 04 20 f0 1f 00 0a           ...../. . ....

00001ff0 <CLK_4078>:
	...

00002004 <Dont_care_4078>:
    2004:	ff 3f ff 3f ff 3f ff 3f ff 3f ff 3f ff 3f ff 3f     .?.?.?.?.?.?.?.?
    2014:	ff 3f ff 3f                                         .?.?

00002018 <logic_4078>:
    2018:	1f 2f 0a 25 14 2a 18 2c 06 23 00 2f 00 30 1f 27     ./.%.*.,.#./.0.'
    2028:	16 2f 1c 2e                                         ./..

0000202c <IC_4077>:
    202c:	ed 0f 00 00 f3 39 4a 20 42 20 3a 20 00 04           .....9J B : ..

0000203a <CLK_4077>:
	...

00002042 <Dont_care_4077>:
    2042:	ff 3f ff 3f ff 3f ff 3f                             .?.?.?.?

0000204a <logic_4077>:
    204a:	0c 26 91 28 22 31 bf 3f                             .&.("1.?

00002052 <IC_4076>:
    2052:	ec 0f 00 00 c3 ff 6c 20 66 20 60 20 00 03           ......l f ` ..

00002060 <CLK_4076>:
    2060:	40 00 40 00 40 00                                   @.@.@.

00002066 <Dont_care_4076>:
    2066:	ff ff ff ff ff ff                                   ......

0000206c <logic_4076>:
    206c:	3c bc 14 a8 28 94                                   <...(.

00002072 <IC_4075>:
    2072:	eb 0f 00 00 df 3c a0 20 90 20 80 20 00 08           .....<. . . ..

00002080 <CLK_4075>:
	...

00002090 <Dont_care_4075>:
    2090:	ff 3f ff 3f ff 3f ff 3f ff 3f ff 3f ff 3f ff 3f     .?.?.?.?.?.?.?.?

000020a0 <logic_4075>:
    20a0:	00 20 ac 27 29 2b ad 2f 33 33 b6 37 3b 3b bf 27     . .')+./33.7;;.'

000020b0 <IC_4073>:
    20b0:	e9 0f 00 00 df 3c de 20 ce 20 be 20 00 08           .....<. . . ..

000020be <CLK_4073>:
	...

000020ce <Dont_care_4073>:
    20ce:	ff 3f ff 3f ff 3f ff 3f ff 3f ff 3f ff 3f ff 3f     .?.?.?.?.?.?.?.?

000020de <logic_4073>:
    20de:	00 20 84 24 09 28 8d 2c 13 30 96 34 13 38 bf 3f     . .$.(.,.0.4.8.?

000020ee <IC_4072>:
    20ee:	e8 0f 00 00 fe 2f 28 21 12 21 fc 20 00 0b           ...../(!.!. ..

000020fc <CLK_4072>:
	...

00002112 <Dont_care_4072>:
    2112:	ff 3f ff 3f ff 3f ff 3f ff 3f ff 3f ff 3f ff 3f     .?.?.?.?.?.?.?.?
    2122:	ff 3f ff 3f ff 3f                                   .?.?.?

00002128 <logic_4072>:
    2128:	00 20 03 31 05 32 07 33 09 34 0b 35 0d 36 0f 37     . .1.2.3.4.5.6.7
    2138:	11 38 13 39 1f 3f                                   .8.9.?

0000213e <IC_4071>:
    213e:	e7 0f 00 00 f3 39 5c 21 54 21 4c 21 00 04           .....9\!T!L!..

0000214c <CLK_4071>:
	...

00002154 <Dont_care_4071>:
    2154:	ff 3f ff 3f ff 3f ff 3f                             .?.?.?.?

0000215c <logic_4071>:
    215c:	b8 23 9d 2e 2e 37 07 3c                             .#...7.<

00002164 <IC_4070>:
    2164:	e6 0f 00 00 f3 39 82 21 7a 21 72 21 00 04           .....9.!z!r!..

00002172 <CLK_4070>:
	...

0000217a <Dont_care_4070>:
    217a:	ff 3f ff 3f ff 3f ff 3f                             .?.?.?.?

00002182 <logic_4070>:
    2182:	00 20 9d 2e 2e 37 b3 39                             . ...7.9

0000218a <IC_4069>:
    218a:	e5 0f 00 00 55 35 a0 21 9c 21 98 21 00 02           ....U5.!.!.!..

00002198 <CLK_4069>:
    2198:	00 00 00 00                                         ....

0000219c <Dont_care_4069>:
    219c:	ff 3f ff 3f                                         .?.?

000021a0 <logic_4069>:
    21a0:	aa 2a 15 35                                         .*.5

000021a4 <IC_4068>:
    21a4:	e4 0f 00 00 ff 2f da 21 c6 21 b2 21 00 0a           ...../.!.!.!..

000021b2 <CLK_4068>:
	...

000021c6 <Dont_care_4068>:
    21c6:	ff 3f ff 3f ff 3f ff 3f ff 3f ff 3f ff 3f ff 3f     .?.?.?.?.?.?.?.?
    21d6:	ff 3f ff 3f                                         .?.?

000021da <logic_4068>:
    21da:	1e 2f 0a 35 14 3a 18 3c 06 33 00 3f 00 30 1e 37     ./.5.:.<.3.?.0.7
    21ea:	16 3f 1c 3e                                         .?.>

000021ee <IC_4066>:
    21ee:	e2 0f 00 00 f9 3c 0c 22 04 22 fc 21 00 04           .....<.".".!..

000021fc <CLK_4066>:
	...

00002204 <Dont_care_4066>:
    2204:	ff 3f ff 3f ff 3f ff 3f                             .?.?.?.?

0000220c <logic_4066>:
    220c:	06 23 8f 27 30 38 bf 3f                             .#.'08.?

00002214 <IC_4053>:
    2214:	d5 0f 00 00 f7 9f 36 22 2c 22 22 22 00 05           ......6","""..

00002222 <CLK_4053>:
	...

0000222c <Dont_care_4053>:
    222c:	f7 9f ff ff ff ff ff ff ff ff                       ..........

00002236 <logic_4053>:
    2236:	12 88 1a e8 0e e9 19 ea 1a f4                       ..........

00002240 <IC_4051>:
    2240:	d3 0f 00 00 fb ff 92 22 70 22 4e 22 00 11           ......."p"N"..

0000224e <CLK_4051>:
	...

00002270 <Dont_care_4051>:
    2270:	ff ff ff ff ff ff ff ff ff ff ff ff ff ff ff ff     ................
    2280:	ff ff ff ff ff ff ff ff ff ff ff ff ff ff ff ff     ................
    2290:	ff ff                                               ..

00002292 <logic_4051>:
    2292:	1b e8 1b dc 1b ba 1b f6 1a f9 0b fd 19 fb 13 ff     ................
    22a2:	04 90 04 a4 04 c2 04 9e 05 81 14 85 06 83 0c 87     ................
    22b2:	3f e8                                               ?.

000022b4 <IC_4049>:
    22b4:	d1 0f 00 00 d5 b5 ca 22 c6 22 c2 22 00 02           ......."."."..

000022c2 <CLK_4049>:
    22c2:	00 00 00 00                                         ....

000022c6 <Dont_care_4049>:
    22c6:	ff ff ff ff                                         ....

000022ca <logic_4049>:
    22ca:	4d b6 33 a9                                         M.3.

000022ce <IC_4048>:
    22ce:	d0 0f 00 00 fe ff ec 22 e4 22 dc 22 00 04           ......."."."..

000022dc <CLK_4048>:
	...

000022e4 <Dont_care_4048>:
    22e4:	ff ff ff ff ff ff ff ff                             ........

000022ec <logic_4048>:
    22ec:	03 80 16 94 17 95 02 81                             ........

000022f4 <IC_4044>:
    22f4:	cc 0f 00 00 fc ec 0e 23 08 23 02 23 00 03           .......#.#.#..

00002302 <CLK_4044>:
    2302:	00 00 00 00 00 00                                   ......

00002308 <Dont_care_4044>:
    2308:	fd ff fd ff fd ff                                   ......

0000230e <logic_4044>:
    230e:	39 bb 7d ff 54 c4                                   9.}.T.

00002314 <IC_4043>:
    2314:	cb 0f 00 00 fc fc 32 23 2a 23 22 23 00 04           ......2#*#"#..

00002322 <CLK_4043>:
	...

0000232a <Dont_care_4043>:
    232a:	ff ff ff ff ff ff ff ff                             ........

00002332 <logic_4043>:
    2332:	54 c4 3b ab 13 83 7f ff                             T.;.....

0000233a <IC_4042>:
    233a:	ca 0f 00 00 f8 b0 54 23 4e 23 48 23 00 03           ......T#N#H#..

00002348 <CLK_4042>:
    2348:	00 00 00 00 00 00                                   ......

0000234e <Dont_care_4042>:
    234e:	ff ff ff ff ff ff                                   ......

00002354 <logic_4042>:
    2354:	4b b6 5b b6 34 c9                                   K.[.4.

0000235a <IC_4041>:
    235a:	c9 0f 00 00 64 32 70 23 6c 23 68 23 00 02           ....d2p#l#h#..

00002368 <CLK_4041>:
    2368:	00 00 00 00                                         ....

0000236c <Dont_care_4041>:
    236c:	ff 3f ff 3f                                         .?.?

00002370 <logic_4041>:
    2370:	ad 36 12 29                                         .6.)

00002374 <IC_4040>:
    2374:	c8 0f 00 00 80 86 be 23 a0 23 82 23 00 0f           .......#.#.#..

00002382 <CLK_4040>:
    2382:	00 02 00 02 00 02 00 02 00 02 00 02 00 02 00 02     ................
    2392:	00 02 00 02 00 02 00 02 00 02 00 02 00 02           ..............

000023a0 <Dont_care_4040>:
    23a0:	80 86 ff ff ff ff ff ff ff ff ff ff ff ff ff ff     ................
    23b0:	ff ff ff ff ff ff ff ff ff ff ff ff ff ff           ..............

000023be <logic_4040>:
    23be:	00 84 00 81 40 80 40 81 20 80 20 81 60 80 60 81     ....@.@. . .`.`.
    23ce:	10 80 10 81 50 80 50 81 30 80 30 81 70 80           ....P.P.0.0.p.

000023dc <IC_4031>:
    23dc:	bf 0f 00 00 83 c2 fa 23 f2 23 ea 23 00 04           .......#.#.#..

000023ea <CLK_4031>:
    23ea:	02 00 02 00 02 00 02 00                             ........

000023f2 <Dont_care_4031>:
    23f2:	e3 c2 e3 c2 e3 c2 e3 c2                             ........

000023fa <logic_4031>:
    23fa:	20 c0 40 80 21 82 40 82                              .@.!.@.

00002402 <IC_4030>:
    2402:	be 0f 00 00 f3 39 20 24 18 24 10 24 00 04           .....9 $.$.$..

00002410 <CLK_4030>:
	...

00002418 <Dont_care_4030>:
    2418:	ff 3f ff 3f ff 3f ff 3f                             .?.?.?.?

00002420 <logic_4030>:
    2420:	9d 2e 2e 37 00 20 b3 39                             ...7. .9

00002428 <IC_4029>:
    2428:	bd 0f 00 00 9d db 8e 24 62 24 36 24 00 16           .......$b$6$..

00002436 <CLK_4029>:
    2436:	00 40 00 40 00 40 00 40 00 40 00 40 00 40 00 40     .@.@.@.@.@.@.@.@
    2446:	00 40 00 40 00 40 00 40 00 40 00 40 00 40 00 40     .@.@.@.@.@.@.@.@
    2456:	00 40 00 40 00 40 00 40 00 40 01 40                 .@.@.@.@.@.@

00002462 <Dont_care_4029>:
    2462:	ff ff ff ff ff ff ff ff ff ff ff ff ff ff ff ff     ................
    2472:	ff ff ff ff ff ff ff ff ff ff ff ff ff ff ff ff     ................
    2482:	ff ff ff ff ff ff ff ff ff ff ff ff                 ............

0000248e <logic_4029>:
    248e:	41 82 60 82 40 86 60 86 40 a2 60 a2 40 a6 60 a6     A.`.@.`.@.`.@.`.
    249e:	42 82 22 80 42 80 60 a4 40 a4 60 a0 40 a0 60 84     B.".B.`.@.`.@.`.
    24ae:	40 84 60 80 50 80 00 80 62 80 40 be                 @.`.P...b.@.

000024ba <IC_4028>:
    24ba:	bc 0f 00 00 80 9e f0 24 dc 24 c8 24 00 0a           .......$.$.$..

000024c8 <CLK_4028>:
	...

000024dc <Dont_care_4028>:
    24dc:	ff ff ff ff ff ff ff ff ff ff ff ff ff ff ff ff     ................
    24ec:	ff ff ff ff                                         ....

000024f0 <logic_4028>:
    24f0:	04 80 00 a2 04 80 00 d2 01 88 20 8a 40 98 08 9a     .......... .@...
    2500:	00 85 10 86                                         ....

00002504 <IC_4027>:
    2504:	bb 0f 00 00 fc 9f 3a 25 26 25 12 25 00 0a           ......:%&%.%..

00002512 <CLK_4027>:
    2512:	00 00 00 00 04 00 04 00 04 00 04 00 00 10 00 10     ................
    2522:	00 10 00 10                                         ....

00002526 <Dont_care_4027>:
    2526:	ff ff ff ff ff ff ff ff ff ff ff ff ff ff ff ff     ................
    2536:	ff ff ff ff                                         ....

0000253a <logic_4027>:
    253a:	51 c5 2a aa 21 a0 12 a0 31 a0 32 a0 02 c2 02 a4     Q.*.!...1.2.....
    254a:	02 c6 02 a6                                         ....

0000254e <IC_4025>:
    254e:	b9 0f 00 00 df 3c 7c 25 6c 25 5c 25 00 08           .....<|%l%\%..

0000255c <CLK_4025>:
	...

0000256c <Dont_care_4025>:
    256c:	ff 3f ff 3f ff 3f ff 3f ff 3f ff 3f ff 3f ff 3f     .?.?.?.?.?.?.?.?

0000257c <logic_4025>:
    257c:	20 23 84 24 09 28 8d 2c 12 30 96 34 1b 38 9f 3c      #.$.(.,.0.4.8.<

0000258c <IC_4024>:
    258c:	b8 0f 00 00 43 20 d2 25 b6 25 9a 25 00 0e           ....C .%.%.%..

0000259a <CLK_4024>:
    259a:	01 00 01 00 01 00 01 00 01 00 01 00 01 00 01 00     ................
    25aa:	01 00 01 00 01 00 01 00 01 00 01 00                 ............

000025b6 <Dont_care_4024>:
    25b6:	43 20 7f 2d 7f 2d 7f 2d 7f 2d 7f 2d 7f 2d 7f 2d     C .-.-.-.-.-.-.-
    25c6:	7f 2d 7f 2d 7f 2d 7f 2d 7f 2d 7f 2d                 .-.-.-.-.-.-

000025d2 <logic_4024>:
    25d2:	02 20 00 28 00 24 00 2c 00 21 00 29 00 25 00 2d     . .(.$.,.!.).%.-
    25e2:	20 20 20 28 20 24 20 2c 20 21 02 20                    ( $ , !. 

000025ee <IC_4023>:
    25ee:	b7 0f 00 00 df 3c 1c 26 0c 26 fc 25 00 08           .....<.&.&.%..

000025fc <CLK_4023>:
	...

0000260c <Dont_care_4023>:
    260c:	ff 3f ff 3f ff 3f ff 3f ff 3f ff 3f ff 3f ff 3f     .?.?.?.?.?.?.?.?

0000261c <logic_4023>:
    261c:	20 23 a4 27 29 2b ad 2f 32 33 b6 37 3b 3b 9f 3c      #.')+./23.7;;.<

0000262c <IC_4022>:
    262c:	b6 0f 00 00 80 f0 62 26 4e 26 3a 26 00 0a           ......b&N&:&..

0000263a <CLK_4022>:
    263a:	00 20 00 20 00 20 00 20 00 20 00 20 00 20 00 20     . . . . . . . . 
    264a:	00 20 00 20                                         . . 

0000264e <Dont_care_4022>:
    264e:	df fe df fe df fe df fe df fe df fe df fe df fe     ................
    265e:	df fe df fe                                         ....

00002662 <logic_4022>:
    2662:	02 c8 01 88 04 88 40 88 00 84 08 80 10 80 00 82     ......@.........
    2672:	02 88 02 98                                         ....

00002676 <IC_4020>:
    2676:	b4 0f 00 00 80 86 cc 26 a8 26 84 26 00 12           .......&.&.&..

00002684 <CLK_4020>:
    2684:	00 00 00 00 00 02 00 02 00 02 00 02 00 02 00 02     ................
    2694:	00 02 00 02 00 02 00 02 00 02 00 02 00 02 00 02     ................
    26a4:	00 02 00 02                                         ....

000026a8 <Dont_care_4020>:
    26a8:	ff ff ff ff ff ff ff ff ff ff ff ff ff ff ff ff     ................
    26b8:	ff ff ff ff ff ff ff ff ff ff ff ff ff ff ff ff     ................
    26c8:	ff ff ff ff                                         ....

000026cc <logic_4020>:
    26cc:	00 84 00 80 00 81 00 80 00 81 00 80 00 81 00 80     ................
    26dc:	00 81 40 80 40 81 40 80 40 81 40 80 40 81 40 80     ..@.@.@.@.@.@.@.
    26ec:	40 81 10 80                                         @...

000026f0 <IC_40193>:
    26f0:	01 9d 00 00 99 e7 36 27 1a 27 fe 26 00 0e           ......6'.'.&..

000026fe <CLK_40193>:
	...

0000271a <Dont_care_40193>:
    271a:	99 ff ff ff ff ff ff ff ff ff ff ff ff ff ff ff     ................
    272a:	ff ff ff ff ff ff ff ff ff ff ff ff                 ............

00002736 <logic_40193>:
    2736:	18 ff 7c db 6c 9c 7a 9c 6a 9c 7e 9c 6e 94 18 9c     ..|.l.z.j.~.n...
    2746:	08 9c 1c 9c 14 9c 18 9c 10 8c 7e 9c                 ..........~.

00002752 <IC_40192>:
    2752:	00 9d 00 00 99 e7 98 27 7c 27 60 27 00 0e           .......'|'`'..

00002760 <CLK_40192>:
	...

0000277c <Dont_care_40192>:
    277c:	99 ff ff ff ff ff ff ff ff ff ff ff ff ff ff ff     ................
    278c:	ff ff ff ff ff ff ff ff ff ff ff ff                 ............

00002798 <logic_40192>:
    2798:	19 fe 3f da 2e 9c 58 9c 48 9c 5c 9c 4c 94 18 9c     ..?...X.H.\.L...
    27a8:	08 9c 1c 9c 14 9c 18 9c 10 8c 5c 9c                 ..........\.

000027b4 <IC_4019>:
    27b4:	b3 0f 00 00 ff e1 da 27 ce 27 c2 27 00 06           .......'.'.'..

000027c2 <CLK_4019>:
	...

000027ce <Dont_care_4019>:
    27ce:	ff ff ff ff ff ff ff ff ff ff ff ff                 ............

000027da <logic_4019>:
    27da:	7f ff 7f fe 7f c0 00 f1 55 8f 55 be                 ........U.U.

000027e6 <IC_4018>:
    27e6:	b2 0f 00 00 c7 eb 1c 28 08 28 f4 27 00 0a           .......(.(.'..

000027f4 <CLK_4018>:
    27f4:	00 20 00 20 00 20 00 20 00 20 00 20 00 20 00 20     . . . . . . . . 
    2804:	00 20 00 20                                         . . 

00002808 <Dont_care_4018>:
    2808:	ff ff ff ff ff ff ff ff ff ff ff ff ff ff ff ff     ................
    2818:	ff ff ff ff                                         ....

0000281c <logic_4018>:
    281c:	39 dd 29 9d 21 9d 01 9d 01 99 00 89 38 8b 38 84     9.).!.......8.8.
    282c:	39 94 29 94                                         9.).

00002830 <IC_40175>:
    2830:	ef 9c 00 00 99 99 4e 28 46 28 3e 28 00 04           ......N(F(>(..

0000283e <CLK_40175>:
    283e:	00 01 00 01 00 01 00 01                             ........

00002846 <Dont_care_40175>:
    2846:	ff ff ff ff ff ff ff ff                             ........

0000284e <logic_40175>:
    284e:	5b da 25 a4 24 a4 3c bc                             [.%.$.<.

00002856 <IC_40174>:
    2856:	ee 9c 00 00 ad b5 74 28 6c 28 64 28 00 04           ......t(l(d(..

00002864 <CLK_40174>:
    2864:	00 01 00 01 00 01 00 01                             ........

0000286c <Dont_care_40174>:
    286c:	ff ff ff ff ff ff ff ff                             ........

00002874 <logic_40174>:
    2874:	7f fe 01 80 00 80 2c b4                             ......,.

0000287c <IC_4017>:
    287c:	b1 0f 00 00 80 f0 ba 28 a2 28 8a 28 00 0c           .......(.(.(..

0000288a <CLK_4017>:
    288a:	00 20 00 20 00 20 00 20 00 20 00 20 00 20 00 20     . . . . . . . . 
    289a:	00 20 00 20 00 20 00 20                             . . . . 

000028a2 <Dont_care_4017>:
    28a2:	ff ff ff ff ff ff ff ff ff ff ff ff ff ff ff ff     ................
    28b2:	ff ff ff ff ff ff ff ff                             ........

000028ba <logic_4017>:
    28ba:	04 c8 02 88 08 88 40 88 00 8a 01 80 10 80 20 80     ......@....... .
    28ca:	00 81 00 84 04 88 04 98                             ........

000028d2 <IC_40162>:
    28d2:	e2 9c 00 00 ff 83 14 29 fa 28 e0 28 00 0d           .......).(.(..

000028e0 <CLK_40162>:
    28e0:	02 00 02 00 00 00 02 00 02 00 02 00 02 00 02 00     ................
	...
    28f8:	02 00                                               ..

000028fa <Dont_care_40162>:
    28fa:	ff 83 ff ff ff ff ff ff ff ff ff ff ff ff ff ff     ................
    290a:	ff ff ff ff ff ff ff ff ff 83                       ..........

00002914 <logic_40162>:
    2914:	1c 81 1d b8 41 bb 41 87 41 e7 41 83 41 a3 41 93     ....A.A.A.A.A.A.
    2924:	43 b3 42 b3 40 b3 42 83 41 83                       C.B.@.B.A.

0000292e <IC_40161>:
    292e:	e1 9c 00 00 ff 83 6c 29 54 29 3c 29 00 0c           ......l)T)<)..

0000293c <CLK_40161>:
    293c:	02 00 02 00 02 00 00 00 02 00 02 00 02 00 02 00     ................
    294c:	00 00 00 00 00 00 02 00                             ........

00002954 <Dont_care_40161>:
    2954:	ff 83 ff ff ff ff ff ff ff ff ff ff ff ff ff ff     ................
    2964:	ff ff ff ff ff ff ff 83                             ........

0000296c <logic_40161>:
    296c:	34 81 34 83 35 ac 41 af 41 9f 41 ff 41 83 41 a3     4.4.5.A.A.A.A.A.
    297c:	43 93 41 93 40 83 41 83                             C.A.@.A.

00002984 <IC_4016>:
    2984:	b0 0f 00 00 f9 3c a2 29 9a 29 92 29 00 04           .....<.).).)..

00002992 <CLK_4016>:
	...

0000299a <Dont_care_4016>:
    299a:	ff 3f ff 3f ff 3f ff 3f                             .?.?.?.?

000029a2 <logic_4016>:
    29a2:	06 23 8f 27 30 38 bf 3f                             .#.'08.?

000029aa <IC_4015>:
    29aa:	af 0f 00 00 e1 e1 cc 29 c2 29 b8 29 00 05           .......).).)..

000029b8 <CLK_4015>:
    29b8:	01 01 01 01 01 01 01 01 01 01                       ..........

000029c2 <Dont_care_4015>:
    29c2:	ff ff ff ff ff ff ff ff ff ff                       ..........

000029cc <logic_4015>:
    29cc:	20 a0 50 d0 58 d8 5c dc 0e 8e                        .P.X.\...

000029d6 <IC_4013>:
    29d6:	ad 0f 00 00 fc 27 f4 29 ec 29 e4 29 00 04           .....'.).).)..

000029e4 <CLK_4013>:
    29e4:	04 04 04 04 04 04 04 04                             ........

000029ec <Dont_care_4013>:
    29ec:	ff 3f ff 3f ff 3f ff 3f                             .?.?.?.?

000029f4 <logic_4013>:
    29f4:	0a 2a a1 30 02 28 11 31                             .*.0.(.1

000029fc <IC_4012>:
    29fc:	ac 0f 00 00 5e 2f 1a 2a 12 2a 0a 2a 00 04           ....^/.*.*.*..

00002a0a <CLK_4012>:
	...

00002a12 <Dont_care_4012>:
    2a12:	5f 3f 5f 3f 5f 3f 5f 3f                             _?_?_?_?

00002a1a <logic_4012>:
    2a1a:	01 30 0b 35 15 3a 1e 2f                             .0.5.:./

00002a22 <IC_4011>:
    2a22:	ab 0f 00 00 f3 39 40 2a 38 2a 30 2a 00 04           .....9@*8*0*..

00002a30 <CLK_4011>:
	...

00002a38 <Dont_care_4011>:
    2a38:	ff 3f ff 3f ff 3f ff 3f                             .?.?.?.?

00002a40 <logic_4011>:
    2a40:	b4 25 9d 2e 2e 37 0b 3a                             .%...7.:

00002a48 <IC_40106>:
    2a48:	aa 9c 00 00 55 35 5e 2a 5a 2a 56 2a 00 02           ....U5^*Z*V*..

00002a56 <CLK_40106>:
    2a56:	00 00 00 00                                         ....

00002a5a <Dont_care_40106>:
    2a5a:	ff 3f ff 3f                                         .?.?

00002a5e <logic_40106>:
    2a5e:	aa 2a 15 35                                         .*.5

00002a62 <IC_4010>:
    2a62:	aa 0f 00 00 d5 a5 78 2a 74 2a 70 2a 00 02           ......x*t*p*..

00002a70 <CLK_4010>:
    2a70:	00 00 00 00                                         ....

00002a74 <Dont_care_4010>:
    2a74:	ff ef ff ef                                         ....

00002a78 <logic_4010>:
    2a78:	7f ef 01 80                                         ....

00002a7c <IC_4009>:
    2a7c:	a9 0f 00 00 d5 a5 92 2a 8e 2a 8a 2a 00 02           .......*.*.*..

00002a8a <CLK_4009>:
    2a8a:	00 00 00 00                                         ....

00002a8e <Dont_care_4009>:
    2a8e:	ff ef ff ef                                         ....

00002a92 <logic_4009>:
    2a92:	2b ca 55 a5                                         +.U.

00002a96 <IC_4002>:
    2a96:	a2 0f 00 00 fe 2f cc 2a b8 2a a4 2a 00 0a           ...../.*.*.*..

00002aa4 <CLK_4002>:
	...

00002ab8 <Dont_care_4002>:
    2ab8:	ff 3f ff 3f ff 3f ff 3f ff 3f ff 3f ff 3f ff 3f     .?.?.?.?.?.?.?.?
    2ac8:	ff 3f ff 3f                                         .?.?

00002acc <logic_4002>:
    2acc:	10 23 10 21 10 2f 18 2c 06 2f 04 22 1e 2f 01 30     .#.!./.,./."./.0
    2adc:	0a 25 14 2a                                         .%.*

00002ae0 <IC_4001>:
    2ae0:	a1 0f 00 00 f3 39 fe 2a f6 2a ee 2a 00 04           .....9.*.*.*..

00002aee <CLK_4001>:
	...

00002af6 <Dont_care_4001>:
    2af6:	ff 3f ff 3f ff 3f ff 3f                             .?.?.?.?

00002afe <logic_4001>:
    2afe:	0c 26 22 31 91 28 b3 39                             .&"1.(.9

00002b06 <IC_4000>:
    2b06:	a0 0f 00 00 df 3c 38 2b 26 2b 14 2b 00 09           .....<8+&+.+..

00002b14 <CLK_4000>:
	...

00002b26 <Dont_care_4000>:
    2b26:	ff 3f ff 3f ff 3f ff 3f ff 3f ff 3f ff 3f ff 3f     .?.?.?.?.?.?.?.?
    2b36:	ff 3f                                               .?

00002b38 <logic_4000>:
    2b38:	a0 22 20 23 10 25 08 29 18 2d 04 31 14 35 0c 39     ." #.%.).-.1.5.9
    2b48:	1c 3d                                               .=

00002b4a <__ctors_end>:
    2b4a:	11 24       	eor	r1, r1
    2b4c:	1f be       	out	0x3f, r1	; 63
    2b4e:	cf e5       	ldi	r28, 0x5F	; 95
    2b50:	d8 e0       	ldi	r29, 0x08	; 8
    2b52:	de bf       	out	0x3e, r29	; 62
    2b54:	cd bf       	out	0x3d, r28	; 61

00002b56 <__do_copy_data>:
    2b56:	12 e0       	ldi	r17, 0x02	; 2
    2b58:	a0 e6       	ldi	r26, 0x60	; 96
    2b5a:	b0 e0       	ldi	r27, 0x00	; 0
    2b5c:	ee e0       	ldi	r30, 0x0E	; 14
    2b5e:	f2 e3       	ldi	r31, 0x32	; 50
    2b60:	02 c0       	rjmp	.+4      	; 0x2b66 <__do_copy_data+0x10>
    2b62:	05 90       	lpm	r0, Z+
    2b64:	0d 92       	st	X+, r0
    2b66:	a0 30       	cpi	r26, 0x00	; 0
    2b68:	b1 07       	cpc	r27, r17
    2b6a:	d9 f7       	brne	.-10     	; 0x2b62 <__do_copy_data+0xc>

00002b6c <__do_clear_bss>:
    2b6c:	22 e0       	ldi	r18, 0x02	; 2
    2b6e:	a0 e0       	ldi	r26, 0x00	; 0
    2b70:	b2 e0       	ldi	r27, 0x02	; 2
    2b72:	01 c0       	rjmp	.+2      	; 0x2b76 <.do_clear_bss_start>

00002b74 <.do_clear_bss_loop>:
    2b74:	1d 92       	st	X+, r1

00002b76 <.do_clear_bss_start>:
    2b76:	a8 3d       	cpi	r26, 0xD8	; 216
    2b78:	b2 07       	cpc	r27, r18
    2b7a:	e1 f7       	brne	.-8      	; 0x2b74 <.do_clear_bss_loop>
    2b7c:	0e 94 79 17 	call	0x2ef2	; 0x2ef2 <main>
    2b80:	0c 94 05 19 	jmp	0x320a	; 0x320a <_exit>

00002b84 <__bad_interrupt>:
    2b84:	0c 94 00 00 	jmp	0	; 0x0 <__vectors>

00002b88 <begin_function>:

void send_string(char *ch) {
	while (*ch) {
		send_char(*ch++);
	}
}
    2b88:	81 e0       	ldi	r24, 0x01	; 1
    2b8a:	80 93 00 02 	sts	0x0200, r24	; 0x800200 <__data_end>
    2b8e:	10 92 01 02 	sts	0x0201, r1	; 0x800201 <test_flag>
    2b92:	82 b3       	in	r24, 0x12	; 18
    2b94:	8f 77       	andi	r24, 0x7F	; 127
    2b96:	82 bb       	out	0x12, r24	; 18
    2b98:	08 95       	ret

00002b9a <apply_Direction>:
    2b9a:	8a bb       	out	0x1a, r24	; 26
    2b9c:	97 bb       	out	0x17, r25	; 23
    2b9e:	08 95       	ret

00002ba0 <apply_Logic>:
    2ba0:	8b bb       	out	0x1b, r24	; 27
    2ba2:	98 bb       	out	0x18, r25	; 24
    2ba4:	08 95       	ret

00002ba6 <apply_clk>:
    2ba6:	2b b3       	in	r18, 0x1b	; 27
    2ba8:	28 2b       	or	r18, r24
    2baa:	2b bb       	out	0x1b, r18	; 27
    2bac:	28 b3       	in	r18, 0x18	; 24
    2bae:	29 2b       	or	r18, r25
    2bb0:	28 bb       	out	0x18, r18	; 24
    2bb2:	22 e1       	ldi	r18, 0x12	; 18
    2bb4:	2a 95       	dec	r18
    2bb6:	f1 f7       	brne	.-4      	; 0x2bb4 <apply_clk+0xe>
    2bb8:	00 c0       	rjmp	.+0      	; 0x2bba <apply_clk+0x14>
    2bba:	2b b3       	in	r18, 0x1b	; 27
    2bbc:	80 95       	com	r24
    2bbe:	82 23       	and	r24, r18
    2bc0:	8b bb       	out	0x1b, r24	; 27
    2bc2:	88 b3       	in	r24, 0x18	; 24
    2bc4:	90 95       	com	r25
    2bc6:	98 23       	and	r25, r24
    2bc8:	98 bb       	out	0x18, r25	; 24
    2bca:	08 95       	ret

00002bcc <read_Logic>:
    2bcc:	29 b3       	in	r18, 0x19	; 25
    2bce:	86 b3       	in	r24, 0x16	; 22
    2bd0:	90 e0       	ldi	r25, 0x00	; 0
    2bd2:	98 2f       	mov	r25, r24
    2bd4:	88 27       	eor	r24, r24
    2bd6:	82 2b       	or	r24, r18
    2bd8:	90 93 8d 02 	sts	0x028D, r25	; 0x80028d <read_Logic_temp+0x1>
    2bdc:	80 93 8c 02 	sts	0x028C, r24	; 0x80028c <read_Logic_temp>
    2be0:	08 95       	ret

00002be2 <Test_IC>:
    2be2:	cf 92       	push	r12
    2be4:	df 92       	push	r13
    2be6:	ef 92       	push	r14
    2be8:	ff 92       	push	r15
    2bea:	1f 93       	push	r17
    2bec:	cf 93       	push	r28
    2bee:	df 93       	push	r29
    2bf0:	7c 01       	movw	r14, r24
    2bf2:	fc 01       	movw	r30, r24
    2bf4:	84 81       	ldd	r24, Z+4	; 0x04
    2bf6:	95 81       	ldd	r25, Z+5	; 0x05
    2bf8:	0e 94 cd 15 	call	0x2b9a	; 0x2b9a <apply_Direction>
    2bfc:	10 e0       	ldi	r17, 0x00	; 0
    2bfe:	29 c0       	rjmp	.+82     	; 0x2c52 <Test_IC+0x70>
    2c00:	c1 2f       	mov	r28, r17
    2c02:	d0 e0       	ldi	r29, 0x00	; 0
    2c04:	cc 0f       	add	r28, r28
    2c06:	dd 1f       	adc	r29, r29
    2c08:	ce 01       	movw	r24, r28
    2c0a:	80 5f       	subi	r24, 0xF0	; 240
    2c0c:	9d 4f       	sbci	r25, 0xFD	; 253
    2c0e:	6c 01       	movw	r12, r24
    2c10:	fc 01       	movw	r30, r24
    2c12:	80 81       	ld	r24, Z
    2c14:	91 81       	ldd	r25, Z+1	; 0x01
    2c16:	0e 94 d0 15 	call	0x2ba0	; 0x2ba0 <apply_Logic>
    2c1a:	fe 01       	movw	r30, r28
    2c1c:	e2 5b       	subi	r30, 0xB2	; 178
    2c1e:	fd 4f       	sbci	r31, 0xFD	; 253
    2c20:	80 81       	ld	r24, Z
    2c22:	91 81       	ldd	r25, Z+1	; 0x01
    2c24:	0e 94 d3 15 	call	0x2ba6	; 0x2ba6 <apply_clk>
    2c28:	0e 94 e6 15 	call	0x2bcc	; 0x2bcc <read_Logic>
    2c2c:	c2 57       	subi	r28, 0x72	; 114
    2c2e:	dd 4f       	sbci	r29, 0xFD	; 253
    2c30:	28 81       	ld	r18, Y
    2c32:	39 81       	ldd	r19, Y+1	; 0x01
    2c34:	82 23       	and	r24, r18
    2c36:	93 23       	and	r25, r19
    2c38:	f6 01       	movw	r30, r12
    2c3a:	20 81       	ld	r18, Z
    2c3c:	31 81       	ldd	r19, Z+1	; 0x01
    2c3e:	82 17       	cp	r24, r18
    2c40:	93 07       	cpc	r25, r19
    2c42:	31 f0       	breq	.+12     	; 0x2c50 <Test_IC+0x6e>
    2c44:	80 e0       	ldi	r24, 0x00	; 0
    2c46:	90 e0       	ldi	r25, 0x00	; 0
    2c48:	0e 94 cd 15 	call	0x2b9a	; 0x2b9a <apply_Direction>
    2c4c:	80 e0       	ldi	r24, 0x00	; 0
    2c4e:	06 c0       	rjmp	.+12     	; 0x2c5c <Test_IC+0x7a>
    2c50:	1f 5f       	subi	r17, 0xFF	; 255
    2c52:	f7 01       	movw	r30, r14
    2c54:	85 85       	ldd	r24, Z+13	; 0x0d
    2c56:	18 17       	cp	r17, r24
    2c58:	98 f2       	brcs	.-90     	; 0x2c00 <Test_IC+0x1e>
    2c5a:	81 e0       	ldi	r24, 0x01	; 1
    2c5c:	df 91       	pop	r29
    2c5e:	cf 91       	pop	r28
    2c60:	1f 91       	pop	r17
    2c62:	ff 90       	pop	r15
    2c64:	ef 90       	pop	r14
    2c66:	df 90       	pop	r13
    2c68:	cf 90       	pop	r12
    2c6a:	08 95       	ret

00002c6c <unsignedIntToStr>:


/* ======================================================== convert int to string ================================================ */ 
void unsignedIntToStr(uint32_t num, char *str) {
    2c6c:	cf 92       	push	r12
    2c6e:	df 92       	push	r13
    2c70:	ef 92       	push	r14
    2c72:	ff 92       	push	r15
    2c74:	0f 93       	push	r16
    2c76:	1f 93       	push	r17
    2c78:	cf 93       	push	r28
    2c7a:	df 93       	push	r29
    2c7c:	ea 01       	movw	r28, r20
	uint32_t i = 0;

	// Handle 0 explicitly, otherwise empty string is printed
	if (num == 0) {
    2c7e:	61 15       	cp	r22, r1
    2c80:	71 05       	cpc	r23, r1
    2c82:	81 05       	cpc	r24, r1
    2c84:	91 05       	cpc	r25, r1
    2c86:	d1 f4       	brne	.+52     	; 0x2cbc <unsignedIntToStr+0x50>
		str[i++] = '0';
    2c88:	80 e3       	ldi	r24, 0x30	; 48
    2c8a:	88 83       	st	Y, r24
		str[i] = '\0';
    2c8c:	19 82       	std	Y+1, r1	; 0x01
		return;
    2c8e:	39 c0       	rjmp	.+114    	; 0x2d02 <unsignedIntToStr+0x96>
	}

	// Process individual digits
	while (num != 0) {
		str[i++] = (num % 10) + '0';  // Get the last digit and convert to character
    2c90:	8e 01       	movw	r16, r28
    2c92:	0c 0d       	add	r16, r12
    2c94:	1d 1d       	adc	r17, r13
    2c96:	2a e0       	ldi	r18, 0x0A	; 10
    2c98:	30 e0       	ldi	r19, 0x00	; 0
    2c9a:	40 e0       	ldi	r20, 0x00	; 0
    2c9c:	50 e0       	ldi	r21, 0x00	; 0
    2c9e:	0e 94 da 18 	call	0x31b4	; 0x31b4 <__udivmodsi4>
    2ca2:	60 5d       	subi	r22, 0xD0	; 208
    2ca4:	f8 01       	movw	r30, r16
    2ca6:	60 83       	st	Z, r22
		num = num / 10;  // Remove the last digit
    2ca8:	62 2f       	mov	r22, r18
    2caa:	73 2f       	mov	r23, r19
    2cac:	84 2f       	mov	r24, r20
    2cae:	95 2f       	mov	r25, r21
		return;
	}

	// Process individual digits
	while (num != 0) {
		str[i++] = (num % 10) + '0';  // Get the last digit and convert to character
    2cb0:	ff ef       	ldi	r31, 0xFF	; 255
    2cb2:	cf 1a       	sub	r12, r31
    2cb4:	df 0a       	sbc	r13, r31
    2cb6:	ef 0a       	sbc	r14, r31
    2cb8:	ff 0a       	sbc	r15, r31
    2cba:	03 c0       	rjmp	.+6      	; 0x2cc2 <unsignedIntToStr+0x56>
    2cbc:	c1 2c       	mov	r12, r1
    2cbe:	d1 2c       	mov	r13, r1
    2cc0:	76 01       	movw	r14, r12
		str[i] = '\0';
		return;
	}

	// Process individual digits
	while (num != 0) {
    2cc2:	61 15       	cp	r22, r1
    2cc4:	71 05       	cpc	r23, r1
    2cc6:	81 05       	cpc	r24, r1
    2cc8:	91 05       	cpc	r25, r1
    2cca:	11 f7       	brne	.-60     	; 0x2c90 <unsignedIntToStr+0x24>
		str[i++] = (num % 10) + '0';  // Get the last digit and convert to character
		num = num / 10;  // Remove the last digit
	}

	// Null terminate the string
	str[i] = '\0';
    2ccc:	fe 01       	movw	r30, r28
    2cce:	ec 0d       	add	r30, r12
    2cd0:	fd 1d       	adc	r31, r13
    2cd2:	10 82       	st	Z, r1

	// Reverse the string as digits are in reverse order
	int start = 0;
	int end = i - 1;
    2cd4:	21 e0       	ldi	r18, 0x01	; 1
    2cd6:	c2 1a       	sub	r12, r18
    2cd8:	d1 08       	sbc	r13, r1

	// Null terminate the string
	str[i] = '\0';

	// Reverse the string as digits are in reverse order
	int start = 0;
    2cda:	80 e0       	ldi	r24, 0x00	; 0
    2cdc:	90 e0       	ldi	r25, 0x00	; 0
	int end = i - 1;
	while (start < end) {
    2cde:	0e c0       	rjmp	.+28     	; 0x2cfc <unsignedIntToStr+0x90>
		char temp = str[start];
    2ce0:	de 01       	movw	r26, r28
    2ce2:	a8 0f       	add	r26, r24
    2ce4:	b9 1f       	adc	r27, r25
    2ce6:	2c 91       	ld	r18, X
		str[start] = str[end];
    2ce8:	fe 01       	movw	r30, r28
    2cea:	ec 0d       	add	r30, r12
    2cec:	fd 1d       	adc	r31, r13
    2cee:	30 81       	ld	r19, Z
    2cf0:	3c 93       	st	X, r19
		str[end] = temp;
    2cf2:	20 83       	st	Z, r18
		start++;
    2cf4:	01 96       	adiw	r24, 0x01	; 1
		end--;
    2cf6:	e1 e0       	ldi	r30, 0x01	; 1
    2cf8:	ce 1a       	sub	r12, r30
    2cfa:	d1 08       	sbc	r13, r1
	str[i] = '\0';

	// Reverse the string as digits are in reverse order
	int start = 0;
	int end = i - 1;
	while (start < end) {
    2cfc:	8c 15       	cp	r24, r12
    2cfe:	9d 05       	cpc	r25, r13
    2d00:	7c f3       	brlt	.-34     	; 0x2ce0 <unsignedIntToStr+0x74>
		str[start] = str[end];
		str[end] = temp;
		start++;
		end--;
	}
}
    2d02:	df 91       	pop	r29
    2d04:	cf 91       	pop	r28
    2d06:	1f 91       	pop	r17
    2d08:	0f 91       	pop	r16
    2d0a:	ff 90       	pop	r15
    2d0c:	ef 90       	pop	r14
    2d0e:	df 90       	pop	r13
    2d10:	cf 90       	pop	r12
    2d12:	08 95       	ret

00002d14 <clear_logic_array>:

/* ======================================================== Clear Logic Array ================================================ */
void clear_logic_array(void){
	for (int i = 0 ; i<size_logic_array ; i++)
    2d14:	80 e0       	ldi	r24, 0x00	; 0
    2d16:	90 e0       	ldi	r25, 0x00	; 0
    2d18:	08 c0       	rjmp	.+16     	; 0x2d2a <clear_logic_array+0x16>
	{
		logic_array[i] =  0;
    2d1a:	fc 01       	movw	r30, r24
    2d1c:	ee 0f       	add	r30, r30
    2d1e:	ff 1f       	adc	r31, r31
    2d20:	e0 5f       	subi	r30, 0xF0	; 240
    2d22:	fd 4f       	sbci	r31, 0xFD	; 253
    2d24:	11 82       	std	Z+1, r1	; 0x01
    2d26:	10 82       	st	Z, r1
	}
}

/* ======================================================== Clear Logic Array ================================================ */
void clear_logic_array(void){
	for (int i = 0 ; i<size_logic_array ; i++)
    2d28:	01 96       	adiw	r24, 0x01	; 1
    2d2a:	20 91 64 00 	lds	r18, 0x0064	; 0x800064 <size_logic_array>
    2d2e:	30 91 65 00 	lds	r19, 0x0065	; 0x800065 <size_logic_array+0x1>
    2d32:	82 17       	cp	r24, r18
    2d34:	93 07       	cpc	r25, r19
    2d36:	88 f3       	brcs	.-30     	; 0x2d1a <clear_logic_array+0x6>
	{
		logic_array[i] =  0;
	}
}
    2d38:	08 95       	ret

00002d3a <clear_dont_care_array>:

void clear_dont_care_array(void){
	for (int i = 0 ; i<size_logic_array ; i++)
    2d3a:	80 e0       	ldi	r24, 0x00	; 0
    2d3c:	90 e0       	ldi	r25, 0x00	; 0
    2d3e:	08 c0       	rjmp	.+16     	; 0x2d50 <clear_dont_care_array+0x16>
	{
		dont_care[i] =  0;
    2d40:	fc 01       	movw	r30, r24
    2d42:	ee 0f       	add	r30, r30
    2d44:	ff 1f       	adc	r31, r31
    2d46:	e2 57       	subi	r30, 0x72	; 114
    2d48:	fd 4f       	sbci	r31, 0xFD	; 253
    2d4a:	11 82       	std	Z+1, r1	; 0x01
    2d4c:	10 82       	st	Z, r1
		logic_array[i] =  0;
	}
}

void clear_dont_care_array(void){
	for (int i = 0 ; i<size_logic_array ; i++)
    2d4e:	01 96       	adiw	r24, 0x01	; 1
    2d50:	20 91 64 00 	lds	r18, 0x0064	; 0x800064 <size_logic_array>
    2d54:	30 91 65 00 	lds	r19, 0x0065	; 0x800065 <size_logic_array+0x1>
    2d58:	82 17       	cp	r24, r18
    2d5a:	93 07       	cpc	r25, r19
    2d5c:	88 f3       	brcs	.-30     	; 0x2d40 <clear_dont_care_array+0x6>
	{
		dont_care[i] =  0;
	}
}
    2d5e:	08 95       	ret

00002d60 <clear_clk_array>:

void clear_clk_array(void){
	for (int i = 0 ; i<size_logic_array ; i++)
    2d60:	80 e0       	ldi	r24, 0x00	; 0
    2d62:	90 e0       	ldi	r25, 0x00	; 0
    2d64:	08 c0       	rjmp	.+16     	; 0x2d76 <clear_clk_array+0x16>
	{
		clk[i] =  0;
    2d66:	fc 01       	movw	r30, r24
    2d68:	ee 0f       	add	r30, r30
    2d6a:	ff 1f       	adc	r31, r31
    2d6c:	e2 5b       	subi	r30, 0xB2	; 178
    2d6e:	fd 4f       	sbci	r31, 0xFD	; 253
    2d70:	11 82       	std	Z+1, r1	; 0x01
    2d72:	10 82       	st	Z, r1
		dont_care[i] =  0;
	}
}

void clear_clk_array(void){
	for (int i = 0 ; i<size_logic_array ; i++)
    2d74:	01 96       	adiw	r24, 0x01	; 1
    2d76:	20 91 64 00 	lds	r18, 0x0064	; 0x800064 <size_logic_array>
    2d7a:	30 91 65 00 	lds	r19, 0x0065	; 0x800065 <size_logic_array+0x1>
    2d7e:	82 17       	cp	r24, r18
    2d80:	93 07       	cpc	r25, r19
    2d82:	88 f3       	brcs	.-30     	; 0x2d66 <clear_clk_array+0x6>
	{
		clk[i] =  0;
	}
}
    2d84:	08 95       	ret

00002d86 <LCD_Send_Command>:
	LCD_Send_Command(0x01); // Clear display
	_delay_ms(2);      // Clear command requires extra delay
}

void LCD_Send_Command(uint8_t cmd){
	PORTC &= ~(1 << RS);				//  command mode
    2d86:	95 b3       	in	r25, 0x15	; 21
    2d88:	9f 7e       	andi	r25, 0xEF	; 239
    2d8a:	95 bb       	out	0x15, r25	; 21
	
	PORTC = (PORTC & 0xF0) | ((cmd >> 4) & 0x0F);
    2d8c:	95 b3       	in	r25, 0x15	; 21
    2d8e:	90 7f       	andi	r25, 0xF0	; 240
    2d90:	28 2f       	mov	r18, r24
    2d92:	22 95       	swap	r18
    2d94:	2f 70       	andi	r18, 0x0F	; 15
    2d96:	92 2b       	or	r25, r18
    2d98:	95 bb       	out	0x15, r25	; 21
	
	PORTC |= (1 << E);   // Enable pulse
    2d9a:	95 b3       	in	r25, 0x15	; 21
    2d9c:	90 62       	ori	r25, 0x20	; 32
    2d9e:	95 bb       	out	0x15, r25	; 21
	#else
		//round up by default
		__ticks_dc = (uint32_t)(ceil(fabs(__tmp)));
	#endif

	__builtin_avr_delay_cycles(__ticks_dc);
    2da0:	94 e0       	ldi	r25, 0x04	; 4
    2da2:	9a 95       	dec	r25
    2da4:	f1 f7       	brne	.-4      	; 0x2da2 <LCD_Send_Command+0x1c>
	_delay_us(1);
	PORTC &= ~(1 << E);
    2da6:	95 b3       	in	r25, 0x15	; 21
    2da8:	9f 7d       	andi	r25, 0xDF	; 223
    2daa:	95 bb       	out	0x15, r25	; 21
    2dac:	e8 e2       	ldi	r30, 0x28	; 40
    2dae:	f2 e0       	ldi	r31, 0x02	; 2
    2db0:	31 97       	sbiw	r30, 0x01	; 1
    2db2:	f1 f7       	brne	.-4      	; 0x2db0 <LCD_Send_Command+0x2a>
    2db4:	00 c0       	rjmp	.+0      	; 0x2db6 <LCD_Send_Command+0x30>
    2db6:	00 00       	nop
	_delay_us(200);
	
	 PORTC = (PORTC & 0xF0) | (cmd & 0x0F);
    2db8:	95 b3       	in	r25, 0x15	; 21
    2dba:	90 7f       	andi	r25, 0xF0	; 240
    2dbc:	8f 70       	andi	r24, 0x0F	; 15
    2dbe:	89 2b       	or	r24, r25
    2dc0:	85 bb       	out	0x15, r24	; 21
	 
	 PORTC |= (1 << E);   // Enable pulse
    2dc2:	85 b3       	in	r24, 0x15	; 21
    2dc4:	80 62       	ori	r24, 0x20	; 32
    2dc6:	85 bb       	out	0x15, r24	; 21
    2dc8:	f4 e0       	ldi	r31, 0x04	; 4
    2dca:	fa 95       	dec	r31
    2dcc:	f1 f7       	brne	.-4      	; 0x2dca <LCD_Send_Command+0x44>
	 _delay_us(1);
	 PORTC &= ~(1 << E);
    2dce:	85 b3       	in	r24, 0x15	; 21
    2dd0:	8f 7d       	andi	r24, 0xDF	; 223
    2dd2:	85 bb       	out	0x15, r24	; 21
    2dd4:	87 e0       	ldi	r24, 0x07	; 7
    2dd6:	8a 95       	dec	r24
    2dd8:	f1 f7       	brne	.-4      	; 0x2dd6 <LCD_Send_Command+0x50>
    2dda:	00 c0       	rjmp	.+0      	; 0x2ddc <LCD_Send_Command+0x56>
    2ddc:	08 95       	ret

00002dde <LCD_Clear>:
	LCD_SetCursor(2,1);
	LCD_Send_String("IC Name : ");
}

void LCD_Clear(void) {
	LCD_Send_Command(0x01); // Clear display
    2dde:	81 e0       	ldi	r24, 0x01	; 1
    2de0:	0e 94 c3 16 	call	0x2d86	; 0x2d86 <LCD_Send_Command>
	#else
		//round up by default
		__ticks_dc = (uint32_t)(ceil(fabs(__tmp)));
	#endif

	__builtin_avr_delay_cycles(__ticks_dc);
    2de4:	89 e9       	ldi	r24, 0x99	; 153
    2de6:	95 e1       	ldi	r25, 0x15	; 21
    2de8:	01 97       	sbiw	r24, 0x01	; 1
    2dea:	f1 f7       	brne	.-4      	; 0x2de8 <LCD_Clear+0xa>
    2dec:	00 c0       	rjmp	.+0      	; 0x2dee <LCD_Clear+0x10>
    2dee:	08 95       	ret

00002df0 <LCD_Send_Data>:
}


// Send data (character) to the LCD
void LCD_Send_Data(char data) {
	PORTC |= (1 << RS);  // RS = 1 (data mode)
    2df0:	95 b3       	in	r25, 0x15	; 21
    2df2:	90 61       	ori	r25, 0x10	; 16
    2df4:	95 bb       	out	0x15, r25	; 21
	
	// Send higher nibble
	PORTC = (PORTC & 0xF0) | ((data >> 4) & 0x0F);
    2df6:	95 b3       	in	r25, 0x15	; 21
    2df8:	90 7f       	andi	r25, 0xF0	; 240
    2dfa:	28 2f       	mov	r18, r24
    2dfc:	22 95       	swap	r18
    2dfe:	2f 70       	andi	r18, 0x0F	; 15
    2e00:	92 2b       	or	r25, r18
    2e02:	95 bb       	out	0x15, r25	; 21
	PORTC |= (1 << E);   // Enable pulse
    2e04:	95 b3       	in	r25, 0x15	; 21
    2e06:	90 62       	ori	r25, 0x20	; 32
    2e08:	95 bb       	out	0x15, r25	; 21
	#else
		//round up by default
		__ticks_dc = (uint32_t)(ceil(fabs(__tmp)));
	#endif

	__builtin_avr_delay_cycles(__ticks_dc);
    2e0a:	94 e0       	ldi	r25, 0x04	; 4
    2e0c:	9a 95       	dec	r25
    2e0e:	f1 f7       	brne	.-4      	; 0x2e0c <LCD_Send_Data+0x1c>
	_delay_us(1);
	PORTC &= ~(1 << E);
    2e10:	95 b3       	in	r25, 0x15	; 21
    2e12:	9f 7d       	andi	r25, 0xDF	; 223
    2e14:	95 bb       	out	0x15, r25	; 21
    2e16:	e8 e2       	ldi	r30, 0x28	; 40
    2e18:	f2 e0       	ldi	r31, 0x02	; 2
    2e1a:	31 97       	sbiw	r30, 0x01	; 1
    2e1c:	f1 f7       	brne	.-4      	; 0x2e1a <LCD_Send_Data+0x2a>
    2e1e:	00 c0       	rjmp	.+0      	; 0x2e20 <LCD_Send_Data+0x30>
    2e20:	00 00       	nop
	_delay_us(200);
	
	// Send lower nibble
	PORTC = (PORTC & 0xF0) | (data & 0x0F);
    2e22:	95 b3       	in	r25, 0x15	; 21
    2e24:	90 7f       	andi	r25, 0xF0	; 240
    2e26:	8f 70       	andi	r24, 0x0F	; 15
    2e28:	89 2b       	or	r24, r25
    2e2a:	85 bb       	out	0x15, r24	; 21
	PORTC |= (1 << E);   // Enable pulse
    2e2c:	85 b3       	in	r24, 0x15	; 21
    2e2e:	80 62       	ori	r24, 0x20	; 32
    2e30:	85 bb       	out	0x15, r24	; 21
    2e32:	f4 e0       	ldi	r31, 0x04	; 4
    2e34:	fa 95       	dec	r31
    2e36:	f1 f7       	brne	.-4      	; 0x2e34 <LCD_Send_Data+0x44>
	_delay_us(1);
	PORTC &= ~(1 << E);
    2e38:	85 b3       	in	r24, 0x15	; 21
    2e3a:	8f 7d       	andi	r24, 0xDF	; 223
    2e3c:	85 bb       	out	0x15, r24	; 21
    2e3e:	87 e0       	ldi	r24, 0x07	; 7
    2e40:	8a 95       	dec	r24
    2e42:	f1 f7       	brne	.-4      	; 0x2e40 <LCD_Send_Data+0x50>
    2e44:	00 c0       	rjmp	.+0      	; 0x2e46 <LCD_Send_Data+0x56>
    2e46:	08 95       	ret

00002e48 <LCD_Send_String>:
	_delay_us(2);
}

void LCD_Send_String(char *str){
    2e48:	cf 93       	push	r28
    2e4a:	df 93       	push	r29
    2e4c:	ec 01       	movw	r28, r24
	while(*str){
    2e4e:	09 c0       	rjmp	.+18     	; 0x2e62 <LCD_Send_String+0x1a>
		LCD_Send_Data(*str);
    2e50:	0e 94 f8 16 	call	0x2df0	; 0x2df0 <LCD_Send_Data>
		*str++;
    2e54:	21 96       	adiw	r28, 0x01	; 1
	#else
		//round up by default
		__ticks_dc = (uint32_t)(ceil(fabs(__tmp)));
	#endif

	__builtin_avr_delay_cycles(__ticks_dc);
    2e56:	8f ef       	ldi	r24, 0xFF	; 255
    2e58:	9b e6       	ldi	r25, 0x6B	; 107
    2e5a:	01 97       	sbiw	r24, 0x01	; 1
    2e5c:	f1 f7       	brne	.-4      	; 0x2e5a <LCD_Send_String+0x12>
    2e5e:	00 c0       	rjmp	.+0      	; 0x2e60 <LCD_Send_String+0x18>
    2e60:	00 00       	nop
	PORTC &= ~(1 << E);
	_delay_us(2);
}

void LCD_Send_String(char *str){
	while(*str){
    2e62:	88 81       	ld	r24, Y
    2e64:	81 11       	cpse	r24, r1
    2e66:	f4 cf       	rjmp	.-24     	; 0x2e50 <LCD_Send_String+0x8>
		LCD_Send_Data(*str);
		*str++;
		_delay_ms(10);
	}
}
    2e68:	df 91       	pop	r29
    2e6a:	cf 91       	pop	r28
    2e6c:	08 95       	ret

00002e6e <LCD_SetCursor>:

void LCD_SetCursor(uint8_t row, uint8_t col) {
	uint8_t address = (row == 1) ? 0x00 : 0x40; // Line 1 or Line 2
    2e6e:	81 30       	cpi	r24, 0x01	; 1
    2e70:	11 f4       	brne	.+4      	; 0x2e76 <LCD_SetCursor+0x8>
    2e72:	80 e0       	ldi	r24, 0x00	; 0
    2e74:	01 c0       	rjmp	.+2      	; 0x2e78 <LCD_SetCursor+0xa>
    2e76:	80 e4       	ldi	r24, 0x40	; 64
	address += col;
    2e78:	86 0f       	add	r24, r22
	LCD_Send_Command(0x80 | address); // Set DDRAM address
    2e7a:	80 68       	ori	r24, 0x80	; 128
    2e7c:	0e 94 c3 16 	call	0x2d86	; 0x2d86 <LCD_Send_Command>
    2e80:	08 95       	ret

00002e82 <LCD_Init>:

/* ======================================================== LCD Configuration ================================================ */

void LCD_Init(void){
	uint8_t cmd ;
	DDRC = 0xFF;
    2e82:	8f ef       	ldi	r24, 0xFF	; 255
    2e84:	84 bb       	out	0x14, r24	; 20
	PORTC = 0x00;
    2e86:	15 ba       	out	0x15, r1	; 21
    2e88:	8f ef       	ldi	r24, 0xFF	; 255
    2e8a:	97 ed       	ldi	r25, 0xD7	; 215
    2e8c:	01 97       	sbiw	r24, 0x01	; 1
    2e8e:	f1 f7       	brne	.-4      	; 0x2e8c <LCD_Init+0xa>
    2e90:	00 c0       	rjmp	.+0      	; 0x2e92 <LCD_Init+0x10>
    2e92:	00 00       	nop
	_delay_ms(20);

	// Function set: 4-bit mode
	LCD_Send_Command(0x33);
    2e94:	83 e3       	ldi	r24, 0x33	; 51
    2e96:	0e 94 c3 16 	call	0x2d86	; 0x2d86 <LCD_Send_Command>
	LCD_Send_Command(0x32);
    2e9a:	82 e3       	ldi	r24, 0x32	; 50
    2e9c:	0e 94 c3 16 	call	0x2d86	; 0x2d86 <LCD_Send_Command>
	LCD_Send_Command(0x28); // 2 lines, 5x8 matrix
    2ea0:	88 e2       	ldi	r24, 0x28	; 40
    2ea2:	0e 94 c3 16 	call	0x2d86	; 0x2d86 <LCD_Send_Command>
	LCD_Send_Command(0x0C);					// Display on, cursor off, no blinking
    2ea6:	8c e0       	ldi	r24, 0x0C	; 12
    2ea8:	0e 94 c3 16 	call	0x2d86	; 0x2d86 <LCD_Send_Command>
	LCD_Send_Command(0x06);					// Entry mode set: increment cursor, no shift
    2eac:	86 e0       	ldi	r24, 0x06	; 6
    2eae:	0e 94 c3 16 	call	0x2d86	; 0x2d86 <LCD_Send_Command>
	LCD_Clear()	;
    2eb2:	0e 94 ef 16 	call	0x2dde	; 0x2dde <LCD_Clear>
	
	LCD_SetCursor(1,3);
    2eb6:	63 e0       	ldi	r22, 0x03	; 3
    2eb8:	81 e0       	ldi	r24, 0x01	; 1
    2eba:	0e 94 37 17 	call	0x2e6e	; 0x2e6e <LCD_SetCursor>
	LCD_Send_String("IC Tester");
    2ebe:	8f ec       	ldi	r24, 0xCF	; 207
    2ec0:	91 e0       	ldi	r25, 0x01	; 1
    2ec2:	0e 94 24 17 	call	0x2e48	; 0x2e48 <LCD_Send_String>
	LCD_SetCursor(2,1);
    2ec6:	61 e0       	ldi	r22, 0x01	; 1
    2ec8:	82 e0       	ldi	r24, 0x02	; 2
    2eca:	0e 94 37 17 	call	0x2e6e	; 0x2e6e <LCD_SetCursor>
	LCD_Send_String("IC Name : ");
    2ece:	89 ed       	ldi	r24, 0xD9	; 217
    2ed0:	91 e0       	ldi	r25, 0x01	; 1
    2ed2:	0e 94 24 17 	call	0x2e48	; 0x2e48 <LCD_Send_String>
    2ed6:	08 95       	ret

00002ed8 <Init>:
}


/* ==================================================================================== Init Function ======================================================================================================== */
void Init(void){
	EXT_INTx_Init(&begin_test);
    2ed8:	80 e6       	ldi	r24, 0x60	; 96
    2eda:	90 e0       	ldi	r25, 0x00	; 0
    2edc:	0e 94 29 18 	call	0x3052	; 0x3052 <EXT_INTx_Init>
	//USART_Init();
	LCD_Init();
    2ee0:	0e 94 41 17 	call	0x2e82	; 0x2e82 <LCD_Init>
	DDRD |=(1 << PD7);
    2ee4:	81 b3       	in	r24, 0x11	; 17
    2ee6:	80 68       	ori	r24, 0x80	; 128
    2ee8:	81 bb       	out	0x11, r24	; 17
	PORTD&=	~(1 << PD7);
    2eea:	82 b3       	in	r24, 0x12	; 18
    2eec:	8f 77       	andi	r24, 0x7F	; 127
    2eee:	82 bb       	out	0x12, r24	; 18
    2ef0:	08 95       	ret

00002ef2 <main>:
 */ 
#include "main.h"
int main(void)
{
	uint8_t trav_ICs;
	Init();
    2ef2:	0e 94 6c 17 	call	0x2ed8	; 0x2ed8 <Init>
    /* Replace with your application code */
    while (1) 
    {
		if(begin_flag){
    2ef6:	80 91 00 02 	lds	r24, 0x0200	; 0x800200 <__data_end>
    2efa:	88 23       	and	r24, r24
    2efc:	e1 f3       	breq	.-8      	; 0x2ef6 <main+0x4>
    2efe:	5d c0       	rjmp	.+186    	; 0x2fba <main+0xc8>
			for (trav_ICs = 0 ; trav_ICs < Number_of_ICs ; trav_ICs++){
				memcpy_P(&temp,ICs[trav_ICs],sizeof(IC_INFO));					// get struct from flash to SRAM
    2f00:	e1 2f       	mov	r30, r17
    2f02:	f0 e0       	ldi	r31, 0x00	; 0
    2f04:	ee 0f       	add	r30, r30
    2f06:	ff 1f       	adc	r31, r31
    2f08:	e9 59       	subi	r30, 0x99	; 153
    2f0a:	ff 4f       	sbci	r31, 0xFF	; 255
    2f0c:	60 81       	ld	r22, Z
    2f0e:	71 81       	ldd	r23, Z+1	; 0x01
    2f10:	4e e0       	ldi	r20, 0x0E	; 14
    2f12:	50 e0       	ldi	r21, 0x00	; 0
    2f14:	82 e0       	ldi	r24, 0x02	; 2
    2f16:	92 e0       	ldi	r25, 0x02	; 2
    2f18:	0e 94 fc 18 	call	0x31f8	; 0x31f8 <memcpy_P>
				memcpy_P(&logic_array,temp.logic,temp.sizeof_array_logic * sizeof(uint16_t));			// get logic array from Flash to SRAM
    2f1c:	c2 e0       	ldi	r28, 0x02	; 2
    2f1e:	d2 e0       	ldi	r29, 0x02	; 2
    2f20:	4d 85       	ldd	r20, Y+13	; 0x0d
    2f22:	6e 81       	ldd	r22, Y+6	; 0x06
    2f24:	7f 81       	ldd	r23, Y+7	; 0x07
    2f26:	50 e0       	ldi	r21, 0x00	; 0
    2f28:	44 0f       	add	r20, r20
    2f2a:	55 1f       	adc	r21, r21
    2f2c:	80 e1       	ldi	r24, 0x10	; 16
    2f2e:	92 e0       	ldi	r25, 0x02	; 2
    2f30:	0e 94 fc 18 	call	0x31f8	; 0x31f8 <memcpy_P>
				memcpy_P(&dont_care,temp.dont_care,temp.sizeof_array_logic * sizeof(uint16_t));
    2f34:	4d 85       	ldd	r20, Y+13	; 0x0d
    2f36:	68 85       	ldd	r22, Y+8	; 0x08
    2f38:	79 85       	ldd	r23, Y+9	; 0x09
    2f3a:	50 e0       	ldi	r21, 0x00	; 0
    2f3c:	44 0f       	add	r20, r20
    2f3e:	55 1f       	adc	r21, r21
    2f40:	8e e8       	ldi	r24, 0x8E	; 142
    2f42:	92 e0       	ldi	r25, 0x02	; 2
    2f44:	0e 94 fc 18 	call	0x31f8	; 0x31f8 <memcpy_P>
				memcpy_P(&clk,temp.clk,temp.sizeof_array_logic * sizeof(uint16_t));
    2f48:	4d 85       	ldd	r20, Y+13	; 0x0d
    2f4a:	6a 85       	ldd	r22, Y+10	; 0x0a
    2f4c:	7b 85       	ldd	r23, Y+11	; 0x0b
    2f4e:	50 e0       	ldi	r21, 0x00	; 0
    2f50:	44 0f       	add	r20, r20
    2f52:	55 1f       	adc	r21, r21
    2f54:	8e e4       	ldi	r24, 0x4E	; 78
    2f56:	92 e0       	ldi	r25, 0x02	; 2
    2f58:	0e 94 fc 18 	call	0x31f8	; 0x31f8 <memcpy_P>
				test_flag = Test_IC(&temp);							// function to apply pattern for an ic
    2f5c:	ce 01       	movw	r24, r28
    2f5e:	0e 94 f1 15 	call	0x2be2	; 0x2be2 <Test_IC>
    2f62:	80 93 01 02 	sts	0x0201, r24	; 0x800201 <test_flag>
				if(test_flag){
    2f66:	88 23       	and	r24, r24
    2f68:	01 f1       	breq	.+64     	; 0x2faa <main+0xb8>
					unsignedIntToStr(temp.Name,temp_Name);
    2f6a:	60 91 02 02 	lds	r22, 0x0202	; 0x800202 <temp>
    2f6e:	70 91 03 02 	lds	r23, 0x0203	; 0x800203 <temp+0x1>
    2f72:	80 91 04 02 	lds	r24, 0x0204	; 0x800204 <temp+0x2>
    2f76:	90 91 05 02 	lds	r25, 0x0205	; 0x800205 <temp+0x3>
    2f7a:	4c ec       	ldi	r20, 0xCC	; 204
    2f7c:	52 e0       	ldi	r21, 0x02	; 2
    2f7e:	0e 94 36 16 	call	0x2c6c	; 0x2c6c <unsignedIntToStr>
					LCD_SetCursor(2,11);
    2f82:	6b e0       	ldi	r22, 0x0B	; 11
    2f84:	82 e0       	ldi	r24, 0x02	; 2
    2f86:	0e 94 37 17 	call	0x2e6e	; 0x2e6e <LCD_SetCursor>
					LCD_Send_String("     ");
    2f8a:	8f ee       	ldi	r24, 0xEF	; 239
    2f8c:	91 e0       	ldi	r25, 0x01	; 1
    2f8e:	0e 94 24 17 	call	0x2e48	; 0x2e48 <LCD_Send_String>
					LCD_SetCursor(2,11);
    2f92:	6b e0       	ldi	r22, 0x0B	; 11
    2f94:	82 e0       	ldi	r24, 0x02	; 2
    2f96:	0e 94 37 17 	call	0x2e6e	; 0x2e6e <LCD_SetCursor>
					LCD_Send_String(temp_Name);
    2f9a:	8c ec       	ldi	r24, 0xCC	; 204
    2f9c:	92 e0       	ldi	r25, 0x02	; 2
    2f9e:	0e 94 24 17 	call	0x2e48	; 0x2e48 <LCD_Send_String>
					PORTD |= (1 << PD7);
    2fa2:	82 b3       	in	r24, 0x12	; 18
    2fa4:	80 68       	ori	r24, 0x80	; 128
    2fa6:	82 bb       	out	0x12, r24	; 18
					break;
    2fa8:	0e c0       	rjmp	.+28     	; 0x2fc6 <main+0xd4>
				}
				clear_logic_array();
    2faa:	0e 94 8a 16 	call	0x2d14	; 0x2d14 <clear_logic_array>
				clear_dont_care_array();
    2fae:	0e 94 9d 16 	call	0x2d3a	; 0x2d3a <clear_dont_care_array>
				clear_clk_array();
    2fb2:	0e 94 b0 16 	call	0x2d60	; 0x2d60 <clear_clk_array>
	Init();
    /* Replace with your application code */
    while (1) 
    {
		if(begin_flag){
			for (trav_ICs = 0 ; trav_ICs < Number_of_ICs ; trav_ICs++){
    2fb6:	1f 5f       	subi	r17, 0xFF	; 255
    2fb8:	01 c0       	rjmp	.+2      	; 0x2fbc <main+0xca>
    2fba:	10 e0       	ldi	r17, 0x00	; 0
    2fbc:	80 91 66 00 	lds	r24, 0x0066	; 0x800066 <Number_of_ICs>
    2fc0:	18 17       	cp	r17, r24
    2fc2:	08 f4       	brcc	.+2      	; 0x2fc6 <main+0xd4>
    2fc4:	9d cf       	rjmp	.-198    	; 0x2f00 <main+0xe>
				}
				clear_logic_array();
				clear_dont_care_array();
				clear_clk_array();
			}
			if (!test_flag){
    2fc6:	80 91 01 02 	lds	r24, 0x0201	; 0x800201 <test_flag>
    2fca:	81 11       	cpse	r24, r1
    2fcc:	10 c0       	rjmp	.+32     	; 0x2fee <main+0xfc>
				LCD_SetCursor(2,1);
    2fce:	61 e0       	ldi	r22, 0x01	; 1
    2fd0:	82 e0       	ldi	r24, 0x02	; 2
    2fd2:	0e 94 37 17 	call	0x2e6e	; 0x2e6e <LCD_SetCursor>
				LCD_Send_String("                ");
    2fd6:	84 ee       	ldi	r24, 0xE4	; 228
    2fd8:	91 e0       	ldi	r25, 0x01	; 1
    2fda:	0e 94 24 17 	call	0x2e48	; 0x2e48 <LCD_Send_String>
				LCD_SetCursor(2,3);
    2fde:	63 e0       	ldi	r22, 0x03	; 3
    2fe0:	82 e0       	ldi	r24, 0x02	; 2
    2fe2:	0e 94 37 17 	call	0x2e6e	; 0x2e6e <LCD_SetCursor>
				LCD_Send_String("Not Found");
    2fe6:	85 ef       	ldi	r24, 0xF5	; 245
    2fe8:	91 e0       	ldi	r25, 0x01	; 1
    2fea:	0e 94 24 17 	call	0x2e48	; 0x2e48 <LCD_Send_String>
				// code to show not founded
			}
			begin_flag = false;
    2fee:	10 92 00 02 	sts	0x0200, r1	; 0x800200 <__data_end>
    2ff2:	81 cf       	rjmp	.-254    	; 0x2ef6 <main+0x4>

00002ff4 <EXT_INT0_Init>:
    2ff4:	9b b7       	in	r25, 0x3b	; 59
    2ff6:	9f 7b       	andi	r25, 0xBF	; 191
    2ff8:	9b bf       	out	0x3b, r25	; 59
    2ffa:	95 b7       	in	r25, 0x35	; 53
    2ffc:	9c 7f       	andi	r25, 0xFC	; 252
    2ffe:	95 bf       	out	0x35, r25	; 53
    3000:	95 b7       	in	r25, 0x35	; 53
    3002:	89 2b       	or	r24, r25
    3004:	85 bf       	out	0x35, r24	; 53
    3006:	8b b7       	in	r24, 0x3b	; 59
    3008:	80 64       	ori	r24, 0x40	; 64
    300a:	8b bf       	out	0x3b, r24	; 59
    300c:	08 95       	ret

0000300e <EXT_INT1_Init>:
    300e:	9b b7       	in	r25, 0x3b	; 59
    3010:	9f 77       	andi	r25, 0x7F	; 127
    3012:	9b bf       	out	0x3b, r25	; 59
    3014:	95 b7       	in	r25, 0x35	; 53
    3016:	93 7f       	andi	r25, 0xF3	; 243
    3018:	95 bf       	out	0x35, r25	; 53
    301a:	25 b7       	in	r18, 0x35	; 53
    301c:	90 e0       	ldi	r25, 0x00	; 0
    301e:	88 0f       	add	r24, r24
    3020:	99 1f       	adc	r25, r25
    3022:	88 0f       	add	r24, r24
    3024:	99 1f       	adc	r25, r25
    3026:	82 2b       	or	r24, r18
    3028:	85 bf       	out	0x35, r24	; 53
    302a:	8b b7       	in	r24, 0x3b	; 59
    302c:	80 68       	ori	r24, 0x80	; 128
    302e:	8b bf       	out	0x3b, r24	; 59
    3030:	08 95       	ret

00003032 <EXT_INT2_Init>:
    3032:	9b b7       	in	r25, 0x3b	; 59
    3034:	9f 7d       	andi	r25, 0xDF	; 223
    3036:	9b bf       	out	0x3b, r25	; 59
    3038:	83 30       	cpi	r24, 0x03	; 3
    303a:	21 f4       	brne	.+8      	; 0x3044 <EXT_INT2_Init+0x12>
    303c:	84 b7       	in	r24, 0x34	; 52
    303e:	80 64       	ori	r24, 0x40	; 64
    3040:	84 bf       	out	0x34, r24	; 52
    3042:	03 c0       	rjmp	.+6      	; 0x304a <EXT_INT2_Init+0x18>
    3044:	84 b7       	in	r24, 0x34	; 52
    3046:	8f 7b       	andi	r24, 0xBF	; 191
    3048:	84 bf       	out	0x34, r24	; 52
    304a:	8b b7       	in	r24, 0x3b	; 59
    304c:	80 62       	ori	r24, 0x20	; 32
    304e:	8b bf       	out	0x3b, r24	; 59
    3050:	08 95       	ret

00003052 <EXT_INTx_Init>:
    3052:	cf 93       	push	r28
    3054:	df 93       	push	r29
    3056:	00 97       	sbiw	r24, 0x00	; 0
    3058:	29 f1       	breq	.+74     	; 0x30a4 <EXT_INTx_Init+0x52>
    305a:	ec 01       	movw	r28, r24
    305c:	88 81       	ld	r24, Y
    305e:	81 11       	cpse	r24, r1
    3060:	0a c0       	rjmp	.+20     	; 0x3076 <EXT_INTx_Init+0x24>
    3062:	89 81       	ldd	r24, Y+1	; 0x01
    3064:	0e 94 fa 17 	call	0x2ff4	; 0x2ff4 <EXT_INT0_Init>
    3068:	8a 81       	ldd	r24, Y+2	; 0x02
    306a:	9b 81       	ldd	r25, Y+3	; 0x03
    306c:	90 93 d3 02 	sts	0x02D3, r25	; 0x8002d3 <Interrupt0_callback+0x1>
    3070:	80 93 d2 02 	sts	0x02D2, r24	; 0x8002d2 <Interrupt0_callback>
    3074:	17 c0       	rjmp	.+46     	; 0x30a4 <EXT_INTx_Init+0x52>
    3076:	81 30       	cpi	r24, 0x01	; 1
    3078:	51 f4       	brne	.+20     	; 0x308e <EXT_INTx_Init+0x3c>
    307a:	89 81       	ldd	r24, Y+1	; 0x01
    307c:	0e 94 07 18 	call	0x300e	; 0x300e <EXT_INT1_Init>
    3080:	8a 81       	ldd	r24, Y+2	; 0x02
    3082:	9b 81       	ldd	r25, Y+3	; 0x03
    3084:	90 93 d7 02 	sts	0x02D7, r25	; 0x8002d7 <Interrupt1_callback+0x1>
    3088:	80 93 d6 02 	sts	0x02D6, r24	; 0x8002d6 <Interrupt1_callback>
    308c:	0b c0       	rjmp	.+22     	; 0x30a4 <EXT_INTx_Init+0x52>
    308e:	82 30       	cpi	r24, 0x02	; 2
    3090:	49 f4       	brne	.+18     	; 0x30a4 <EXT_INTx_Init+0x52>
    3092:	89 81       	ldd	r24, Y+1	; 0x01
    3094:	0e 94 19 18 	call	0x3032	; 0x3032 <EXT_INT2_Init>
    3098:	8a 81       	ldd	r24, Y+2	; 0x02
    309a:	9b 81       	ldd	r25, Y+3	; 0x03
    309c:	90 93 d5 02 	sts	0x02D5, r25	; 0x8002d5 <Interrupt2_callback+0x1>
    30a0:	80 93 d4 02 	sts	0x02D4, r24	; 0x8002d4 <Interrupt2_callback>
    30a4:	78 94       	sei
    30a6:	df 91       	pop	r29
    30a8:	cf 91       	pop	r28
    30aa:	08 95       	ret

000030ac <__vector_1>:
    30ac:	1f 92       	push	r1
    30ae:	0f 92       	push	r0
    30b0:	0f b6       	in	r0, 0x3f	; 63
    30b2:	0f 92       	push	r0
    30b4:	11 24       	eor	r1, r1
    30b6:	2f 93       	push	r18
    30b8:	3f 93       	push	r19
    30ba:	4f 93       	push	r20
    30bc:	5f 93       	push	r21
    30be:	6f 93       	push	r22
    30c0:	7f 93       	push	r23
    30c2:	8f 93       	push	r24
    30c4:	9f 93       	push	r25
    30c6:	af 93       	push	r26
    30c8:	bf 93       	push	r27
    30ca:	ef 93       	push	r30
    30cc:	ff 93       	push	r31
    30ce:	8a b7       	in	r24, 0x3a	; 58
    30d0:	8f 7b       	andi	r24, 0xBF	; 191
    30d2:	8a bf       	out	0x3a, r24	; 58
    30d4:	e0 91 d2 02 	lds	r30, 0x02D2	; 0x8002d2 <Interrupt0_callback>
    30d8:	f0 91 d3 02 	lds	r31, 0x02D3	; 0x8002d3 <Interrupt0_callback+0x1>
    30dc:	30 97       	sbiw	r30, 0x00	; 0
    30de:	09 f0       	breq	.+2      	; 0x30e2 <__vector_1+0x36>
    30e0:	09 95       	icall
    30e2:	ff 91       	pop	r31
    30e4:	ef 91       	pop	r30
    30e6:	bf 91       	pop	r27
    30e8:	af 91       	pop	r26
    30ea:	9f 91       	pop	r25
    30ec:	8f 91       	pop	r24
    30ee:	7f 91       	pop	r23
    30f0:	6f 91       	pop	r22
    30f2:	5f 91       	pop	r21
    30f4:	4f 91       	pop	r20
    30f6:	3f 91       	pop	r19
    30f8:	2f 91       	pop	r18
    30fa:	0f 90       	pop	r0
    30fc:	0f be       	out	0x3f, r0	; 63
    30fe:	0f 90       	pop	r0
    3100:	1f 90       	pop	r1
    3102:	18 95       	reti

00003104 <__vector_2>:
    3104:	1f 92       	push	r1
    3106:	0f 92       	push	r0
    3108:	0f b6       	in	r0, 0x3f	; 63
    310a:	0f 92       	push	r0
    310c:	11 24       	eor	r1, r1
    310e:	2f 93       	push	r18
    3110:	3f 93       	push	r19
    3112:	4f 93       	push	r20
    3114:	5f 93       	push	r21
    3116:	6f 93       	push	r22
    3118:	7f 93       	push	r23
    311a:	8f 93       	push	r24
    311c:	9f 93       	push	r25
    311e:	af 93       	push	r26
    3120:	bf 93       	push	r27
    3122:	ef 93       	push	r30
    3124:	ff 93       	push	r31
    3126:	8a b7       	in	r24, 0x3a	; 58
    3128:	8f 77       	andi	r24, 0x7F	; 127
    312a:	8a bf       	out	0x3a, r24	; 58
    312c:	e0 91 d6 02 	lds	r30, 0x02D6	; 0x8002d6 <Interrupt1_callback>
    3130:	f0 91 d7 02 	lds	r31, 0x02D7	; 0x8002d7 <Interrupt1_callback+0x1>
    3134:	30 97       	sbiw	r30, 0x00	; 0
    3136:	09 f0       	breq	.+2      	; 0x313a <__vector_2+0x36>
    3138:	09 95       	icall
    313a:	ff 91       	pop	r31
    313c:	ef 91       	pop	r30
    313e:	bf 91       	pop	r27
    3140:	af 91       	pop	r26
    3142:	9f 91       	pop	r25
    3144:	8f 91       	pop	r24
    3146:	7f 91       	pop	r23
    3148:	6f 91       	pop	r22
    314a:	5f 91       	pop	r21
    314c:	4f 91       	pop	r20
    314e:	3f 91       	pop	r19
    3150:	2f 91       	pop	r18
    3152:	0f 90       	pop	r0
    3154:	0f be       	out	0x3f, r0	; 63
    3156:	0f 90       	pop	r0
    3158:	1f 90       	pop	r1
    315a:	18 95       	reti

0000315c <__vector_3>:
    315c:	1f 92       	push	r1
    315e:	0f 92       	push	r0
    3160:	0f b6       	in	r0, 0x3f	; 63
    3162:	0f 92       	push	r0
    3164:	11 24       	eor	r1, r1
    3166:	2f 93       	push	r18
    3168:	3f 93       	push	r19
    316a:	4f 93       	push	r20
    316c:	5f 93       	push	r21
    316e:	6f 93       	push	r22
    3170:	7f 93       	push	r23
    3172:	8f 93       	push	r24
    3174:	9f 93       	push	r25
    3176:	af 93       	push	r26
    3178:	bf 93       	push	r27
    317a:	ef 93       	push	r30
    317c:	ff 93       	push	r31
    317e:	8a b7       	in	r24, 0x3a	; 58
    3180:	8f 7d       	andi	r24, 0xDF	; 223
    3182:	8a bf       	out	0x3a, r24	; 58
    3184:	e0 91 d4 02 	lds	r30, 0x02D4	; 0x8002d4 <Interrupt2_callback>
    3188:	f0 91 d5 02 	lds	r31, 0x02D5	; 0x8002d5 <Interrupt2_callback+0x1>
    318c:	30 97       	sbiw	r30, 0x00	; 0
    318e:	09 f0       	breq	.+2      	; 0x3192 <__vector_3+0x36>
    3190:	09 95       	icall
    3192:	ff 91       	pop	r31
    3194:	ef 91       	pop	r30
    3196:	bf 91       	pop	r27
    3198:	af 91       	pop	r26
    319a:	9f 91       	pop	r25
    319c:	8f 91       	pop	r24
    319e:	7f 91       	pop	r23
    31a0:	6f 91       	pop	r22
    31a2:	5f 91       	pop	r21
    31a4:	4f 91       	pop	r20
    31a6:	3f 91       	pop	r19
    31a8:	2f 91       	pop	r18
    31aa:	0f 90       	pop	r0
    31ac:	0f be       	out	0x3f, r0	; 63
    31ae:	0f 90       	pop	r0
    31b0:	1f 90       	pop	r1
    31b2:	18 95       	reti

000031b4 <__udivmodsi4>:
    31b4:	a1 e2       	ldi	r26, 0x21	; 33
    31b6:	1a 2e       	mov	r1, r26
    31b8:	aa 1b       	sub	r26, r26
    31ba:	bb 1b       	sub	r27, r27
    31bc:	fd 01       	movw	r30, r26
    31be:	0d c0       	rjmp	.+26     	; 0x31da <__udivmodsi4_ep>

000031c0 <__udivmodsi4_loop>:
    31c0:	aa 1f       	adc	r26, r26
    31c2:	bb 1f       	adc	r27, r27
    31c4:	ee 1f       	adc	r30, r30
    31c6:	ff 1f       	adc	r31, r31
    31c8:	a2 17       	cp	r26, r18
    31ca:	b3 07       	cpc	r27, r19
    31cc:	e4 07       	cpc	r30, r20
    31ce:	f5 07       	cpc	r31, r21
    31d0:	20 f0       	brcs	.+8      	; 0x31da <__udivmodsi4_ep>
    31d2:	a2 1b       	sub	r26, r18
    31d4:	b3 0b       	sbc	r27, r19
    31d6:	e4 0b       	sbc	r30, r20
    31d8:	f5 0b       	sbc	r31, r21

000031da <__udivmodsi4_ep>:
    31da:	66 1f       	adc	r22, r22
    31dc:	77 1f       	adc	r23, r23
    31de:	88 1f       	adc	r24, r24
    31e0:	99 1f       	adc	r25, r25
    31e2:	1a 94       	dec	r1
    31e4:	69 f7       	brne	.-38     	; 0x31c0 <__udivmodsi4_loop>
    31e6:	60 95       	com	r22
    31e8:	70 95       	com	r23
    31ea:	80 95       	com	r24
    31ec:	90 95       	com	r25
    31ee:	9b 01       	movw	r18, r22
    31f0:	ac 01       	movw	r20, r24
    31f2:	bd 01       	movw	r22, r26
    31f4:	cf 01       	movw	r24, r30
    31f6:	08 95       	ret

000031f8 <memcpy_P>:
    31f8:	fb 01       	movw	r30, r22
    31fa:	dc 01       	movw	r26, r24
    31fc:	02 c0       	rjmp	.+4      	; 0x3202 <memcpy_P+0xa>
    31fe:	05 90       	lpm	r0, Z+
    3200:	0d 92       	st	X+, r0
    3202:	41 50       	subi	r20, 0x01	; 1
    3204:	50 40       	sbci	r21, 0x00	; 0
    3206:	d8 f7       	brcc	.-10     	; 0x31fe <memcpy_P+0x6>
    3208:	08 95       	ret

0000320a <_exit>:
    320a:	f8 94       	cli

0000320c <__stop_program>:
    320c:	ff cf       	rjmp	.-2      	; 0x320c <__stop_program>
